
DVSProjApp.elf:     file format elf32-littlenios2
DVSProjApp.elf
architecture: nios2:r1, flags 0x00000112:
EXEC_P, HAS_SYMS, D_PAGED
start address 0x04000230

Program Header:
    LOAD off    0x00001000 vaddr 0x04000000 paddr 0x04000000 align 2**12
         filesz 0x00000020 memsz 0x00000020 flags r-x
    LOAD off    0x00001020 vaddr 0x04000020 paddr 0x04000020 align 2**12
         filesz 0x0001871c memsz 0x0001871c flags r-x
    LOAD off    0x0001973c vaddr 0x0401873c paddr 0x0401a404 align 2**12
         filesz 0x00001cc8 memsz 0x00001cc8 flags rw-
    LOAD off    0x0001c0cc vaddr 0x0401c0cc paddr 0x0401c0cc align 2**12
         filesz 0x00000000 memsz 0x00000178 flags rw-

Sections:
Idx Name          Size      VMA       LMA       File off  Algn
  0 .entry        00000020  04000000  04000000  00001000  2**5
                  CONTENTS, ALLOC, LOAD, READONLY, CODE
  1 .exceptions   00000210  04000020  04000020  00001020  2**2
                  CONTENTS, ALLOC, LOAD, READONLY, CODE
  2 .text         00017b00  04000230  04000230  00001230  2**2
                  CONTENTS, ALLOC, LOAD, READONLY, CODE
  3 .rodata       00000a0c  04017d30  04017d30  00018d30  2**2
                  CONTENTS, ALLOC, LOAD, READONLY, DATA
  4 .rwdata       00001cc8  0401873c  0401a404  0001973c  2**2
                  CONTENTS, ALLOC, LOAD, DATA, SMALL_DATA
  5 .bss          00000178  0401c0cc  0401c0cc  0001c0cc  2**2
                  ALLOC, SMALL_DATA
  6 .sdram        00000000  0401c244  0401c244  0001b404  2**0
                  CONTENTS
  7 .comment      00000023  00000000  00000000  0001b404  2**0
                  CONTENTS, READONLY
  8 .debug_aranges 000013d8  00000000  00000000  0001b428  2**3
                  CONTENTS, READONLY, DEBUGGING
  9 .debug_info   000347d1  00000000  00000000  0001c800  2**0
                  CONTENTS, READONLY, DEBUGGING
 10 .debug_abbrev 0000cf1b  00000000  00000000  00050fd1  2**0
                  CONTENTS, READONLY, DEBUGGING
 11 .debug_line   000105fe  00000000  00000000  0005deec  2**0
                  CONTENTS, READONLY, DEBUGGING
 12 .debug_frame  00002f98  00000000  00000000  0006e4ec  2**2
                  CONTENTS, READONLY, DEBUGGING
 13 .debug_str    00004cdb  00000000  00000000  00071484  2**0
                  CONTENTS, READONLY, DEBUGGING
 14 .debug_loc    00021048  00000000  00000000  0007615f  2**0
                  CONTENTS, READONLY, DEBUGGING
 15 .debug_alt_sim_info 00000010  00000000  00000000  000971a8  2**2
                  CONTENTS, READONLY, DEBUGGING
 16 .debug_ranges 00001fb8  00000000  00000000  000971b8  2**3
                  CONTENTS, READONLY, DEBUGGING
 17 .thread_model 00000003  00000000  00000000  0009d2c6  2**0
                  CONTENTS, READONLY
 18 .cpu          00000009  00000000  00000000  0009d2c9  2**0
                  CONTENTS, READONLY
 19 .qsys         00000001  00000000  00000000  0009d2d2  2**0
                  CONTENTS, READONLY
 20 .simulation_enabled 00000001  00000000  00000000  0009d2d3  2**0
                  CONTENTS, READONLY
 21 .stderr_dev   00000009  00000000  00000000  0009d2d4  2**0
                  CONTENTS, READONLY
 22 .stdin_dev    00000009  00000000  00000000  0009d2dd  2**0
                  CONTENTS, READONLY
 23 .stdout_dev   00000009  00000000  00000000  0009d2e6  2**0
                  CONTENTS, READONLY
 24 .sopc_system_name 00000006  00000000  00000000  0009d2ef  2**0
                  CONTENTS, READONLY
 25 .quartus_project_dir 0000001e  00000000  00000000  0009d2f5  2**0
                  CONTENTS, READONLY
 26 .jdi          00005eee  00000000  00000000  0009d313  2**0
                  CONTENTS, READONLY
 27 .sopcinfo     0006ef0c  00000000  00000000  000a3201  2**0
                  CONTENTS, READONLY
SYMBOL TABLE:
04000000 l    d  .entry	00000000 .entry
04000020 l    d  .exceptions	00000000 .exceptions
04000230 l    d  .text	00000000 .text
04017d30 l    d  .rodata	00000000 .rodata
0401873c l    d  .rwdata	00000000 .rwdata
0401c0cc l    d  .bss	00000000 .bss
0401c244 l    d  .sdram	00000000 .sdram
00000000 l    d  .comment	00000000 .comment
00000000 l    d  .debug_aranges	00000000 .debug_aranges
00000000 l    d  .debug_info	00000000 .debug_info
00000000 l    d  .debug_abbrev	00000000 .debug_abbrev
00000000 l    d  .debug_line	00000000 .debug_line
00000000 l    d  .debug_frame	00000000 .debug_frame
00000000 l    d  .debug_str	00000000 .debug_str
00000000 l    d  .debug_loc	00000000 .debug_loc
00000000 l    d  .debug_alt_sim_info	00000000 .debug_alt_sim_info
00000000 l    d  .debug_ranges	00000000 .debug_ranges
00000000 l    df *ABS*	00000000 ../DVSProjApp_bsp//obj/HAL/src/crt0.o
04000268 l       .text	00000000 alt_after_alt_main
00000000 l    df *ABS*	00000000 alt_irq_handler.c
00000000 l    df *ABS*	00000000 alt_instruction_exception_entry.c
00000000 l    df *ABS*	00000000 hw_impl.c
00000000 l    df *ABS*	00000000 main.c
00000000 l    df *ABS*	00000000 sw_impl.c
00000000 l    df *ABS*	00000000 lib2-divmod.c
00000000 l    df *ABS*	00000000 lib2-divtable.c
00000000 l    df *ABS*	00000000 lib2-mul.c
00000000 l    df *ABS*	00000000 fclose.c
00000000 l    df *ABS*	00000000 fflush.c
00000000 l    df *ABS*	00000000 findfp.c
04001de8 l     F .text	00000008 __fp_unlock
04001dfc l     F .text	0000019c __sinit.part.1
04001f98 l     F .text	00000008 __fp_lock
00000000 l    df *ABS*	00000000 fopen.c
00000000 l    df *ABS*	00000000 fread.c
00000000 l    df *ABS*	00000000 mallocr.c
00000000 l    df *ABS*	00000000 fseek.c
00000000 l    df *ABS*	00000000 fseeko.c
00000000 l    df *ABS*	00000000 fstatr.c
00000000 l    df *ABS*	00000000 fwalk.c
00000000 l    df *ABS*	00000000 fwrite.c
00000000 l    df *ABS*	00000000 getc.c
00000000 l    df *ABS*	00000000 impure.c
0401883c l     O .rwdata	00000424 impure_data
00000000 l    df *ABS*	00000000 int_errno.c
00000000 l    df *ABS*	00000000 makebuf.c
00000000 l    df *ABS*	00000000 malloc.c
00000000 l    df *ABS*	00000000 mallocr.c
00000000 l    df *ABS*	00000000 memcpy.c
00000000 l    df *ABS*	00000000 memset.c
00000000 l    df *ABS*	00000000 openr.c
00000000 l    df *ABS*	00000000 puts.c
00000000 l    df *ABS*	00000000 refill.c
04003f48 l     F .text	0000001c lflush
00000000 l    df *ABS*	00000000 rget.c
00000000 l    df *ABS*	00000000 sbrkr.c
00000000 l    df *ABS*	00000000 scanf.c
00000000 l    df *ABS*	00000000 stdio.c
00000000 l    df *ABS*	00000000 stpcpy.c
00000000 l    df *ABS*	00000000 strcpy.c
00000000 l    df *ABS*	00000000 strlen.c
00000000 l    df *ABS*	00000000 ungetc.c
00000000 l    df *ABS*	00000000 vfscanf.c
0401801a l     O .rodata	00000022 basefix.4359
00000000 l    df *ABS*	00000000 writer.c
00000000 l    df *ABS*	00000000 closer.c
00000000 l    df *ABS*	00000000 ctype_.c
0401813d l     O .rodata	00000180 _ctype_b
00000000 l    df *ABS*	00000000 flags.c
00000000 l    df *ABS*	00000000 fvwrite.c
00000000 l    df *ABS*	00000000 isattyr.c
00000000 l    df *ABS*	00000000 iswspace.c
00000000 l    df *ABS*	00000000 locale.c
04019088 l     O .rwdata	00000020 lc_ctype_charset
04019068 l     O .rwdata	00000020 lc_message_charset
040190a8 l     O .rwdata	00000038 lconv
00000000 l    df *ABS*	00000000 lseekr.c
00000000 l    df *ABS*	00000000 mbrtowc.c
00000000 l    df *ABS*	00000000 mbtowc_r.c
00000000 l    df *ABS*	00000000 memchr.c
00000000 l    df *ABS*	00000000 memmove.c
00000000 l    df *ABS*	00000000 readr.c
00000000 l    df *ABS*	00000000 mallocr.c
00000000 l    df *ABS*	00000000 s_fpclassify.c
00000000 l    df *ABS*	00000000 sccl.c
00000000 l    df *ABS*	00000000 sf_nan.c
00000000 l    df *ABS*	00000000 sprintf.c
00000000 l    df *ABS*	00000000 strcmp.c
00000000 l    df *ABS*	00000000 strtod.c
04007744 l     F .text	00000064 sulp
040182dc l     O .rodata	00000014 fpinan.2773
040182f0 l     O .rodata	00000014 fpi.2737
04018304 l     O .rodata	00000028 tinytens
00000000 l    df *ABS*	00000000 strtol.c
00000000 l    df *ABS*	00000000 strtoll_r.c
00000000 l    df *ABS*	00000000 strtoul.c
00000000 l    df *ABS*	00000000 strtoull_r.c
00000000 l    df *ABS*	00000000 vfprintf.c
0401836e l     O .rodata	00000010 zeroes.4389
0401837e l     O .rodata	00000010 blanks.4388
00000000 l    df *ABS*	00000000 wsetup.c
00000000 l    df *ABS*	00000000 dtoa.c
0400bde0 l     F .text	00000228 quorem
00000000 l    df *ABS*	00000000 gdtoa-gethex.c
0400d690 l     F .text	00000100 rshift
00000000 l    df *ABS*	00000000 gdtoa-hexnan.c
00000000 l    df *ABS*	00000000 mprec.c
040184a0 l     O .rodata	0000000c p05.2768
00000000 l    df *ABS*	00000000 strncmp.c
00000000 l    df *ABS*	00000000 vfprintf.c
040185c4 l     O .rodata	00000010 zeroes.4333
040185d4 l     O .rodata	00000010 blanks.4332
00000000 l    df *ABS*	00000000 mallocr.c
00000000 l    df *ABS*	00000000 libgcc2.c
00000000 l    df *ABS*	00000000 libgcc2.c
00000000 l    df *ABS*	00000000 libgcc2.c
00000000 l    df *ABS*	00000000 libgcc2.c
00000000 l    df *ABS*	00000000 eqsf2.c
00000000 l    df *ABS*	00000000 gesf2.c
00000000 l    df *ABS*	00000000 lesf2.c
00000000 l    df *ABS*	00000000 adddf3.c
00000000 l    df *ABS*	00000000 divdf3.c
00000000 l    df *ABS*	00000000 eqdf2.c
00000000 l    df *ABS*	00000000 gedf2.c
00000000 l    df *ABS*	00000000 ledf2.c
00000000 l    df *ABS*	00000000 muldf3.c
00000000 l    df *ABS*	00000000 subdf3.c
00000000 l    df *ABS*	00000000 fixdfsi.c
00000000 l    df *ABS*	00000000 floatsidf.c
00000000 l    df *ABS*	00000000 floatunsidf.c
00000000 l    df *ABS*	00000000 truncdfsf2.c
00000000 l    df *ABS*	00000000 libgcc2.c
00000000 l    df *ABS*	00000000 libgcc2.c
00000000 l    df *ABS*	00000000 alt_close.c
04014398 l     F .text	0000003c alt_get_errno
00000000 l    df *ABS*	00000000 alt_dcache_flush_all.c
00000000 l    df *ABS*	00000000 alt_dev.c
040144cc l     F .text	0000002c alt_dev_null_write
00000000 l    df *ABS*	00000000 alt_errno.c
00000000 l    df *ABS*	00000000 alt_fstat.c
040144f8 l     F .text	0000003c alt_get_errno
00000000 l    df *ABS*	00000000 alt_isatty.c
040145ec l     F .text	0000003c alt_get_errno
00000000 l    df *ABS*	00000000 alt_load.c
040146d4 l     F .text	00000068 alt_load_section
00000000 l    df *ABS*	00000000 alt_lseek.c
040147c0 l     F .text	0000003c alt_get_errno
00000000 l    df *ABS*	00000000 alt_main.c
00000000 l    df *ABS*	00000000 alt_malloc_lock.c
00000000 l    df *ABS*	00000000 alt_open.c
0401499c l     F .text	0000003c alt_get_errno
040149d8 l     F .text	000000ec alt_file_locked
00000000 l    df *ABS*	00000000 alt_read.c
04014c20 l     F .text	0000003c alt_get_errno
00000000 l    df *ABS*	00000000 alt_release_fd.c
00000000 l    df *ABS*	00000000 alt_sbrk.c
0401a3a4 l     O .rwdata	00000004 heap_end
00000000 l    df *ABS*	00000000 alt_write.c
04014e94 l     F .text	0000003c alt_get_errno
00000000 l    df *ABS*	00000000 alt_sys_init.c
04014fd0 l     F .text	00000034 alt_dev_reg
04019288 l     O .rwdata	00001060 jtag_uart
0401a2e8 l     O .rwdata	00000030 sgdma_m2s
0401a318 l     O .rwdata	00000030 sgdma_s2m
0401a348 l     O .rwdata	00000028 altera_hostfs
00000000 l    df *ABS*	00000000 altera_avalon_jtag_uart_fd.c
00000000 l    df *ABS*	00000000 altera_avalon_jtag_uart_init.c
040152ec l     F .text	0000020c altera_avalon_jtag_uart_irq
040154f8 l     F .text	000000a0 altera_avalon_jtag_uart_timeout
00000000 l    df *ABS*	00000000 altera_avalon_jtag_uart_ioctl.c
00000000 l    df *ABS*	00000000 altera_avalon_jtag_uart_read.c
00000000 l    df *ABS*	00000000 altera_avalon_jtag_uart_write.c
00000000 l    df *ABS*	00000000 altera_avalon_sgdma.c
04015b30 l     F .text	0000003c alt_get_errno
04016760 l     F .text	000000bc alt_avalon_sgdma_irq
00000000 l    df *ABS*	00000000 altera_hostfs.c
0401a3b0 l     O .rwdata	00000009 hcinfo.2538
0401a3bc l     O .rwdata	0000000a hcinfo.2551
0401a3c8 l     O .rwdata	00000009 hcinfo.2560
0401a3d4 l     O .rwdata	0000000a hcinfo.2573
0401a3e0 l     O .rwdata	0000000a hcinfo.2586
0401a3ec l     O .rwdata	0000000a hcinfo.2612
00000000 l    df *ABS*	00000000 alt_alarm_start.c
00000000 l    df *ABS*	00000000 alt_dcache_flush.c
00000000 l    df *ABS*	00000000 alt_dev_llist_insert.c
04016e9c l     F .text	0000003c alt_get_errno
00000000 l    df *ABS*	00000000 alt_do_ctors.c
00000000 l    df *ABS*	00000000 alt_do_dtors.c
00000000 l    df *ABS*	00000000 alt_find_dev.c
00000000 l    df *ABS*	00000000 alt_find_file.c
00000000 l    df *ABS*	00000000 alt_fs_reg.c
00000000 l    df *ABS*	00000000 alt_get_fd.c
00000000 l    df *ABS*	00000000 alt_icache_flush_all.c
00000000 l    df *ABS*	00000000 alt_iic.c
00000000 l    df *ABS*	00000000 alt_iic_isr_register.c
00000000 l    df *ABS*	00000000 alt_io_redirect.c
040175d8 l     F .text	000000e4 alt_open_fd
00000000 l    df *ABS*	00000000 alt_irq_vars.c
00000000 l    df *ABS*	00000000 alt_tick.c
00000000 l    df *ABS*	00000000 altera_nios2_gen2_irq.c
00000000 l    df *ABS*	00000000 atexit.c
00000000 l    df *ABS*	00000000 exit.c
00000000 l    df *ABS*	00000000 memcmp.c
00000000 l    df *ABS*	00000000 __atexit.c
00000000 l    df *ABS*	00000000 __call_atexit.c
00000000 l    df *ABS*	00000000 alt_exit.c
0401c118 g     O .bss	00000004 alt_instruction_exception_handler
040043bc g     F .text	00000088 stpcpy
0400f17c g     F .text	00000074 _mprec_log10
0400f268 g     F .text	0000008c __any_on
04006870 g     F .text	00000054 _isatty_r
040184ac g     O .rodata	00000028 __mprec_tinytens
040148d8 g     F .text	0000007c alt_main
04004444 g     F .text	00000090 strcpy
04003e74 g     F .text	000000c0 _puts_r
0401c144 g     O .bss	00000100 alt_irq
040069d0 g     F .text	00000060 _lseek_r
0400027c g     F .text	00000010 txCallback
0401a404 g       *ABS*	00000000 __flash_rwdata_start
040062fc g     F .text	000000ac __sflags
04012bc8 g     F .text	00000088 .hidden __eqdf2
0401c244 g       *ABS*	00000000 __alt_heap_start
04015c90 g     F .text	00000110 alt_avalon_sgdma_do_sync_transfer
04004358 g     F .text	0000005c __sseek
04002148 g     F .text	00000010 __sinit
040068f4 g     F .text	0000007c _setlocale_r
04001fa0 g     F .text	00000078 __sfmoreglue
040002e4 g     F .text	00000010 cleanupHW
040047d4 g     F .text	00000018 ungetc
04014978 g     F .text	00000024 __malloc_unlock
040168c4 g     F .text	0000011c alt_hostfs_open
040077a8 g     F .text	000015e4 _strtod_r
0401c0cc g     O .bss	00000004 rx_done
040163a8 g     F .text	000003b8 alt_avalon_sgdma_construct_descriptor_burst
04006d38 g     F .text	0000015c memmove
04002130 g     F .text	00000018 _cleanup
0400e23c g     F .text	000000a8 _Balloc
04012c50 g     F .text	000000dc .hidden __gtdf2
040178dc g     F .text	00000024 altera_nios2_gen2_irq_init
0401c0dc g     O .bss	00000004 sgdma_rx
04000000 g     F .entry	0000000c __reset
0401c0d8 g     O .bss	00000004 bufferPtr
04015ef8 g     F .text	00000078 alt_avalon_sgdma_construct_stream_to_mem_desc_burst
04000020 g       *ABS*	00000000 __flash_exceptions_start
04002dc8 g     F .text	0000005c _fstat_r
0401c0e4 g     O .bss	00000004 errno
040041ac g     F .text	00000014 __srget
040061e0 g     F .text	0000001c __svfscanf
040042d4 g     F .text	00000008 __seofread
0400f594 g     F .text	000013a0 ___svfiprintf_internal_r
04000fd0 g     F .text	00000110 resizeImage
0401c104 g     O .bss	00000004 alt_argv
04022370 g       *ABS*	00000000 _gp
040007bc g     F .text	000000b8 printError
04000cf0 g     F .text	000002e0 prepareCommand
04019108 g     O .rwdata	00000180 alt_fd_list
040030bc g     F .text	00000070 _getc_r
0400312c g     F .text	00000088 getc
04016afc g     F .text	00000068 alt_hostfs_seek
0401703c g     F .text	00000090 alt_find_dev
04003ba4 g     F .text	00000148 memcpy
0400dfe0 g     F .text	0000025c __hexnan
04001df0 g     F .text	0000000c _cleanup_r
04014008 g     F .text	000000dc .hidden __floatsidf
040171d4 g     F .text	00000080 alt_fs_reg
040176bc g     F .text	0000007c alt_io_redirect
04012d2c g     F .text	000000f4 .hidden __ltdf2
04017d30 g       *ABS*	00000000 __DTOR_END__
04003f34 g     F .text	00000014 puts
04017900 g     F .text	0000009c alt_exception_cause_generated_bad_addr
04006adc g     F .text	000000d8 mbrtowc
040009f0 g     F .text	0000017c parseCommand
04007458 g     F .text	00000074 __fpclassifyd
040061fc g     F .text	0000004c _vfscanf_r
0400f0d8 g     F .text	000000a4 __ratio
04015ff0 g     F .text	0000008c alt_avalon_sgdma_construct_mem_to_stream_desc_burst
040002f4 g     F .text	0000008c checkHWStatus
040156f0 g     F .text	0000021c altera_avalon_jtag_uart_read
04003370 g     F .text	00000014 malloc
04001958 g     F .text	00000064 .hidden __udivsi3
04014628 g     F .text	000000ac isatty
040068c4 g     F .text	00000030 iswspace
040184fc g     O .rodata	000000c8 __mprec_tens
04006970 g     F .text	0000000c __locale_charset
04011884 g     F .text	000000c8 .hidden __lesf2
04010b1c g     F .text	00000074 .hidden __fixunsdfsi
0401c0f0 g     O .bss	00000004 __malloc_top_pad
04009694 g     F .text	0000001c strtoul
0401a384 g     O .rwdata	00000004 __mb_cur_max
040069a0 g     F .text	0000000c _localeconv_r
040096b0 g     F .text	00000320 _strtoull_r
0400e670 g     F .text	0000003c __i2b
040063a8 g     F .text	000004c8 __sfvwrite_r
04016128 g     F .text	0000005c alt_avalon_sgdma_stop
040041c0 g     F .text	00000054 _sbrk_r
04016a24 g     F .text	0000006c alt_hostfs_read
0400028c g     F .text	00000058 printHWError
04006e94 g     F .text	00000060 _read_r
04016e74 g     F .text	00000028 alt_dcache_flush
0401a39c g     O .rwdata	00000004 alt_max_fd
04001a3c g     F .text	000000f0 _fclose_r
04001db8 g     F .text	00000030 fflush
0401c0ec g     O .bss	00000004 __malloc_max_sbrked_mem
0401194c g     F .text	000008ac .hidden __adddf3
04011750 g     F .text	00000078 .hidden __nesf2
0400ee80 g     F .text	0000010c __b2d
04001514 g     F .text	0000034c scaleSW
0401118c g     F .text	000005c4 .hidden __umoddi3
040147fc g     F .text	000000dc lseek
0401a370 g     O .rwdata	00000004 _global_impure_ptr
04006ef4 g     F .text	00000564 _realloc_r
0401c244 g       *ABS*	00000000 __bss_end
040174e8 g     F .text	000000f0 alt_iic_isr_register
04015b6c g     F .text	00000124 alt_avalon_sgdma_do_async_transfer
040177d4 g     F .text	00000108 alt_tick
040183a0 g     O .rodata	00000100 __hexdig
04010b90 g     F .text	000005fc .hidden __udivdi3
040184d4 g     O .rodata	00000028 __mprec_bigtens
0400e454 g     F .text	00000104 __s2b
040140e4 g     F .text	000000a8 .hidden __floatunsidf
0400ebc0 g     F .text	00000060 __mcmp
04002168 g     F .text	00000018 __fp_lock_all
0401749c g     F .text	0000004c alt_ic_irq_enabled
04017738 g     F .text	0000009c alt_alarm_stop
040090fc g     F .text	0000001c strtol
0401c10c g     O .bss	00000004 alt_irq_active
04002968 g     F .text	00000444 _fseeko_r
040169e0 g     F .text	00000044 alt_hostfs_close
040000fc g     F .exceptions	000000d4 alt_irq_handler
040190e0 g     O .rwdata	00000028 alt_dev_null
04016184 g     F .text	00000064 alt_avalon_sgdma_check_descriptor_status
040144ac g     F .text	00000020 alt_dcache_flush_all
0400e558 g     F .text	00000068 __hi0bits
04013f88 g     F .text	00000080 .hidden __fixdfsi
0401c0e0 g     O .bss	00000004 sgdma_tx
04008d8c g     F .text	00000018 strtod
0401a404 g       *ABS*	00000000 __ram_rwdata_end
0401a394 g     O .rwdata	00000008 alt_dev_list
04014ed0 g     F .text	00000100 write
040162c8 g     F .text	00000080 alt_avalon_sgdma_enable_desc_poll
040117c8 g     F .text	000000bc .hidden __gtsf2
0401873c g       *ABS*	00000000 __ram_rodata_end
04014534 g     F .text	000000b8 fstat
04012d2c g     F .text	000000f4 .hidden __ledf2
0400e938 g     F .text	00000140 __pow5mult
0401c0fc g     O .bss	00000004 __nlocale_changed
040019bc g     F .text	00000058 .hidden __umodsi3
04004250 g     F .text	00000030 _scanf_r
04015f70 g     F .text	00000080 alt_avalon_sgdma_construct_mem_to_stream_desc
0401607c g     F .text	00000054 alt_avalon_sgdma_register_callback
0401c244 g       *ABS*	00000000 end
04002dac g     F .text	0000001c fseeko
0400294c g     F .text	0000001c fseek
0401522c g     F .text	000000c0 altera_avalon_jtag_uart_init
040001d0 g     F .exceptions	00000060 alt_instruction_exception_entry
04017d30 g       *ABS*	00000000 __CTOR_LIST__
08000000 g       *ABS*	00000000 __alt_stack_pointer
04016348 g     F .text	00000060 alt_avalon_sgdma_disable_desc_poll
04014334 g     F .text	00000064 .hidden __clzsi2
0401590c g     F .text	00000224 altera_avalon_jtag_uart_write
04015da0 g     F .text	00000074 alt_avalon_sgdma_construct_mem_to_mem_desc
04002158 g     F .text	00000004 __sfp_lock_acquire
04006c54 g     F .text	000000e4 memchr
040075a4 g     F .text	00000058 _sprintf_r
04015e98 g     F .text	00000060 alt_avalon_sgdma_construct_stream_to_mem_desc
04002638 g     F .text	00000310 _free_r
0400697c g     F .text	00000010 __locale_mb_cur_max
04017b7c g     F .text	00000180 __call_exitprocs
04004138 g     F .text	00000074 __srget_r
0401c0f8 g     O .bss	00000004 __mlocale_changed
0401a378 g     O .rwdata	00000004 __malloc_sbrk_base
04000230 g     F .text	0000003c _start
0401c0d4 g     O .bss	00000004 descPtr
0401c110 g     O .bss	00000004 _alt_tick_rate
04009118 g     F .text	00000304 _strtoll_r
040161e8 g     F .text	00000054 alt_avalon_sgdma_open
0400ea78 g     F .text	00000148 __lshift
0401c114 g     O .bss	00000004 _alt_nticks
04014c5c g     F .text	00000104 read
0401503c g     F .text	0000008c alt_sys_init
0400f3c4 g     F .text	000001d0 __ssprint_r
04003e14 g     F .text	00000060 _open_r
04017a64 g     F .text	00000118 __register_exitproc
0401c0d0 g     O .bss	00000004 tx_done
0400f2f4 g     F .text	000000d0 strncmp
0400e6ac g     F .text	0000028c __multiply
04015598 g     F .text	00000068 altera_avalon_jtag_uart_close
04001a14 g     F .text	00000028 .hidden __mulsi3
0401873c g       *ABS*	00000000 __ram_rwdata_start
04017d30 g       *ABS*	00000000 __ram_rodata_start
0401c11c g     O .bss	00000028 __malloc_current_mallinfo
04001420 g     F .text	000000f4 scaleLineSW
04011750 g     F .text	00000078 .hidden __eqsf2
0400ef8c g     F .text	0000014c __d2b
040150c8 g     F .text	00000060 altera_avalon_jtag_uart_read_fd
0400941c g     F .text	00000278 _strtoul_r
04017254 g     F .text	000000c4 alt_get_fd
040062a8 g     F .text	00000054 _close_r
04000380 g     F .text	000000d0 initHW
040179e8 g     F .text	0000007c memcmp
04015188 g     F .text	00000050 altera_avalon_jtag_uart_close_fd
0401c244 g       *ABS*	00000000 __alt_stack_base
040151d8 g     F .text	00000054 altera_avalon_jtag_uart_ioctl_fd
04002fac g     F .text	000000dc _fwrite_r
0400bc8c g     F .text	00000154 __swsetup_r
040121f8 g     F .text	000009d0 .hidden __divdf3
04002018 g     F .text	00000118 __sfp
0400f1f0 g     F .text	00000078 __copybits
04018c60 g     O .rwdata	00000408 __malloc_av_
04002164 g     F .text	00000004 __sinit_lock_release
04012e20 g     F .text	0000086c .hidden __muldf3
04004280 g     F .text	00000054 __sread
040024e0 g     F .text	00000034 fread
040170cc g     F .text	00000108 alt_find_file
04016ed8 g     F .text	000000a4 alt_dev_llist_insert
04014954 g     F .text	00000024 __malloc_lock
04014de4 g     F .text	000000b0 sbrk
040099d0 g     F .text	000022bc ___svfprintf_internal_r
040160d0 g     F .text	00000058 alt_avalon_sgdma_start
04001d5c g     F .text	0000005c _fflush_r
04010934 g     F .text	000000dc _calloc_r
0401873c g     O .rwdata	00000100 .hidden __divsi3_table
0400228c g     F .text	00000018 fopen
0401c0cc g       *ABS*	00000000 __bss_start
04003cec g     F .text	00000128 memset
0400126c g     F .text	000001b4 main
04000874 g     F .text	00000050 cleanup
04000770 g     F .text	0000004c printHelp
0401c108 g     O .bss	00000004 alt_envp
0401c0e8 g     O .bss	00000004 __malloc_max_total_mem
04015128 g     F .text	00000060 altera_avalon_jtag_uart_write_fd
04011884 g     F .text	000000c8 .hidden __ltsf2
040022a4 g     F .text	0000023c _fread_r
0401a3a8 g     O .rwdata	00000008 alt_sgdma_list
040043b4 g     F .text	00000008 __sclose
08000000 g       *ABS*	00000000 __alt_heap_limit
04001b2c g     F .text	00000014 fclose
04008ea4 g     F .text	00000258 _strtol_r
0401418c g     F .text	000001a8 .hidden __truncdfsf2
0400c008 g     F .text	00001688 _dtoa_r
04003398 g     F .text	0000080c _malloc_r
04000768 g     F .text	00000008 scaleHSCD
0401a3a0 g     O .rwdata	00000004 alt_errno
0400456c g     F .text	000000d4 __submore
04002e24 g     F .text	000000c4 _fwalk
04006bf8 g     F .text	0000005c _mbtowc_r
04001860 g     F .text	00000084 .hidden __divsi3
04002514 g     F .text	00000124 _malloc_trim_r
04017d30 g       *ABS*	00000000 __CTOR_END__
04007668 g     F .text	000000dc strcmp
04017d30 g       *ABS*	00000000 __flash_rodata_start
04017d30 g       *ABS*	00000000 __DTOR_LIST__
04012bc8 g     F .text	00000088 .hidden __nedf2
04015004 g     F .text	00000038 alt_irq_init
04014d60 g     F .text	00000084 alt_release_fd
040075fc g     F .text	0000006c sprintf
040185e4 g     O .rodata	00000100 .hidden __clz_tab
0401c0f4 g     O .bss	00000004 _PathLocale
04008da4 g     F .text	00000100 strtof
0401799c g     F .text	00000014 atexit
040117c8 g     F .text	000000bc .hidden __gesf2
04006248 g     F .text	00000060 _write_r
040069ac g     F .text	00000018 setlocale
0400026c g     F .text	00000010 rxCallback
04004214 g     F .text	0000003c scanf
0400759c g     F .text	00000008 nanf
0401a374 g     O .rwdata	00000004 _impure_ptr
0401c100 g     O .bss	00000004 alt_argc
04001b40 g     F .text	0000021c __sflush_r
04006a30 g     F .text	000000ac _mbrtowc_r
04016fdc g     F .text	00000060 _do_dtors
04006998 g     F .text	00000008 __locale_cjk_lang
04002948 g     F .text	00000004 _fseek_r
04003f64 g     F .text	000001d4 __srefill_r
04000020 g       .exceptions	00000000 alt_irq_entry
04006bb4 g     F .text	00000044 __ascii_mbtowc
0400ee1c g     F .text	00000064 __ulp
04002180 g     F .text	00000018 __fp_unlock_all
040010e0 g     F .text	0000018c saveImage
0401a38c g     O .rwdata	00000008 alt_fs_list
04016a90 g     F .text	0000006c alt_hostfs_write
04000020 g       *ABS*	00000000 __ram_exceptions_start
040069c4 g     F .text	0000000c localeconv
04017338 g     F .text	00000050 alt_ic_isr_register
04000b6c g     F .text	00000184 loadImage
04003088 g     F .text	00000034 fwrite
0401a404 g       *ABS*	00000000 _edata
0401c244 g       *ABS*	00000000 _end
04000230 g       *ABS*	00000000 __ram_exceptions_end
04006178 g     F .text	00000068 vfscanf
04015600 g     F .text	000000f0 altera_avalon_jtag_uart_ioctl
04000450 g     F .text	00000318 scaleHW
04017410 g     F .text	0000008c alt_ic_irq_disable
0401623c g     F .text	0000008c alt_avalon_sgdma_construct_descriptor
040042dc g     F .text	0000007c __swrite
0401a37c g     O .rwdata	00000004 __malloc_trim_threshold
0400698c g     F .text	0000000c __locale_msgcharset
040179b0 g     F .text	00000038 exit
04002ee8 g     F .text	000000c4 _fwalk_reent
0400ec20 g     F .text	000001fc __mdiff
040018e4 g     F .text	00000074 .hidden __modsi3
0401a380 g     O .rwdata	00000004 __ctype_ptr__
08000000 g       *ABS*	00000000 __alt_data_end
04000020 g     F .exceptions	00000000 alt_exception
0400215c g     F .text	00000004 __sfp_lock_release
04000000 g       *ABS*	00000000 __alt_mem_sdram
040008c4 g     F .text	0000012c checkCommand
040074cc g     F .text	000000d0 __sccl
0401803c g     O .rodata	00000101 _ctype_
0401a388 g     O .rwdata	00000004 __mbtowc
04002198 g     F .text	000000f4 _fopen_r
04017cfc g     F .text	00000034 _exit
04016d48 g     F .text	0000012c alt_alarm_start
04010a10 g     F .text	0000010c .hidden __muldi3
040031b4 g     F .text	000001bc __smakebuf_r
040044d4 g     F .text	00000098 strlen
04014ac4 g     F .text	0000015c open
04012c50 g     F .text	000000dc .hidden __gedf2
0400d790 g     F .text	00000850 __gethex
04017318 g     F .text	00000020 alt_icache_flush_all
0401a3f8 g     O .rwdata	00000004 alt_priority_mask
04017388 g     F .text	00000088 alt_ic_irq_enable
04015e14 g     F .text	00000084 alt_avalon_sgdma_construct_mem_to_mem_desc_burst
0401368c g     F .text	000008fc .hidden __subdf3
0400e5c0 g     F .text	000000b0 __lo0bits
040047ec g     F .text	0000198c __svfscanf_r
0401a3fc g     O .rwdata	00000008 alt_alarm_list
04004640 g     F .text	00000194 _ungetc_r
04016f7c g     F .text	00000060 _do_ctors
040143d4 g     F .text	000000d8 close
0401473c g     F .text	00000084 alt_load
0401681c g     F .text	000000a8 alt_avalon_sgdma_init
04003384 g     F .text	00000014 free
04002160 g     F .text	00000004 __sinit_lock_acquire
0400e30c g     F .text	00000148 __multadd
0400e2e4 g     F .text	00000028 _Bfree
04016b64 g     F .text	000001e4 alt_hostfs_fstat



Disassembly of section .entry:

04000000 <__reset>:
 * Jump to the _start entry point in the .text section if reset code
 * is allowed or if optimizing for RTL simulation.
 */
#if defined(ALT_ALLOW_CODE_AT_RESET) || defined(ALT_SIM_OPTIMIZE)
    /* Jump to the _start entry point in the .text section. */
    movhi r1, %hi(_start)
 4000000:	00410034 	movhi	at,1024
    ori r1, r1, %lo(_start)
 4000004:	08408c14 	ori	at,at,560
    jmp r1
 4000008:	0800683a 	jmp	at
	...

Disassembly of section .exceptions:

04000020 <alt_exception>:

#else /* ALT_EXCEPTION_STACK disabled */
        /* 
         * Reserve space on normal stack for registers about to be pushed.
         */
        addi  sp, sp, -76
 4000020:	deffed04 	addi	sp,sp,-76
         * documentation for details).
         *
         * Leave a gap in the stack frame at 4(sp) for the muldiv handler to
         * store zero into.
         */
        stw   ra,  0(sp)
 4000024:	dfc00015 	stw	ra,0(sp)
        stw   r1,   8(sp)
 4000028:	d8400215 	stw	at,8(sp)
        stw   r2,  12(sp)
 400002c:	d8800315 	stw	r2,12(sp)
        stw   r3,  16(sp)
 4000030:	d8c00415 	stw	r3,16(sp)
        stw   r4,  20(sp)
 4000034:	d9000515 	stw	r4,20(sp)
        stw   r5,  24(sp)
 4000038:	d9400615 	stw	r5,24(sp)
        stw   r6,  28(sp)
 400003c:	d9800715 	stw	r6,28(sp)
        stw   r7,  32(sp)
 4000040:	d9c00815 	stw	r7,32(sp)
        rdctl r5, estatus   /* Read early to avoid usage stall */
 4000044:	000b307a 	rdctl	r5,estatus
        stw   r8,  36(sp)
 4000048:	da000915 	stw	r8,36(sp)
        stw   r9,  40(sp)
 400004c:	da400a15 	stw	r9,40(sp)
        stw   r10, 44(sp)
 4000050:	da800b15 	stw	r10,44(sp)
        stw   r11, 48(sp)
 4000054:	dac00c15 	stw	r11,48(sp)
        stw   r12, 52(sp)
 4000058:	db000d15 	stw	r12,52(sp)
        stw   r13, 56(sp)
 400005c:	db400e15 	stw	r13,56(sp)
        stw   r14, 60(sp)
 4000060:	db800f15 	stw	r14,60(sp)
        stw   r15, 64(sp)
 4000064:	dbc01015 	stw	r15,64(sp)
        /*
         * ea-4 contains the address of the instruction being executed
         * when the exception occured. For interrupt exceptions, we will
         * will be re-issue the isntruction. Store it in 72(sp)
         */
        stw   r5,  68(sp)  /* estatus */
 4000068:	d9401115 	stw	r5,68(sp)
        addi  r15, ea, -4  /* instruction that caused exception */
 400006c:	ebffff04 	addi	r15,ea,-4
        stw   r15,  72(sp)
 4000070:	dbc01215 	stw	r15,72(sp)
#else
        /*
         * Test to see if the exception was a software exception or caused 
         * by an external interrupt, and vector accordingly.
         */
        rdctl r4, ipending
 4000074:	0009313a 	rdctl	r4,ipending
        andi  r2, r5, 1
 4000078:	2880004c 	andi	r2,r5,1
        beq   r2, zero, .Lnot_irq
 400007c:	10000326 	beq	r2,zero,400008c <alt_exception+0x6c>
        beq   r4, zero, .Lnot_irq
 4000080:	20000226 	beq	r4,zero,400008c <alt_exception+0x6c>
        /*
         * Now that all necessary registers have been preserved, call 
         * alt_irq_handler() to process the interrupts.
         */

        call alt_irq_handler
 4000084:	40000fc0 	call	40000fc <alt_irq_handler>

        .section .exceptions.irqreturn, "xa"

        br    .Lexception_exit
 4000088:	00000706 	br	40000a8 <alt_exception+0x88>
         * upon completion, so we write ea (address of instruction *after*
         * the one where the exception occured) into 72(sp). The actual
         * instruction that caused the exception is written in r2, which these
         * handlers will utilize.
         */
        stw ea, 72(sp) /* EA is PC+4 so will skip over instruction causing exception */
 400008c:	df401215 	stw	ea,72(sp)
.Lunknown_16bit:
        addi.n r4, r4, 2 /* Need PC+2 to skip over instruction causing exception */
        stw r4, 72(sp)

#else /* CDX is not Enabled and all instructions are 32bits */
        ldw r2, -4(ea) /* Instruction value that caused exception */
 4000090:	e8bfff17 	ldw	r2,-4(ea)
         * debugger is present) or go into an infinite loop since the
         * handling behavior is undefined; in that case we will not return here.
         */

        /* Load exception-causing address as first argument (r4) */
        addi   r4, ea, -4
 4000094:	e93fff04 	addi	r4,ea,-4

        /* Call the instruction-exception entry */
        call   alt_instruction_exception_entry
 4000098:	40001d00 	call	40001d0 <alt_instruction_exception_entry>
         * instruction
         *
         * Return code was 0: Skip. The instruction after the exception is
         * already stored in 72(sp).
         */
        bne   r2, r0, .Lexception_exit
 400009c:	1000021e 	bne	r2,zero,40000a8 <alt_exception+0x88>

        /*
         * Otherwise, modify 72(sp) to re-issue the instruction that caused the
         * exception.
         */
        addi  r15, ea, -4  /* instruction that caused exception */
 40000a0:	ebffff04 	addi	r15,ea,-4
        stw   r15,  72(sp)
 40000a4:	dbc01215 	stw	r15,72(sp)
        /* 
         * Restore the saved registers, so that all general purpose registers 
         * have been restored to their state at the time the interrupt occured.
         */

        ldw   r5,  68(sp)
 40000a8:	d9401117 	ldw	r5,68(sp)
        ldw   ea,  72(sp)  /* This becomes the PC once eret is executed */
 40000ac:	df401217 	ldw	ea,72(sp)
        ldw   ra,   0(sp)
 40000b0:	dfc00017 	ldw	ra,0(sp)

        wrctl estatus, r5
 40000b4:	2801707a 	wrctl	estatus,r5

        ldw   r1,   8(sp)
 40000b8:	d8400217 	ldw	at,8(sp)
        ldw   r2,  12(sp)
 40000bc:	d8800317 	ldw	r2,12(sp)
        ldw   r3,  16(sp)
 40000c0:	d8c00417 	ldw	r3,16(sp)
        ldw   r4,  20(sp)
 40000c4:	d9000517 	ldw	r4,20(sp)
        ldw   r5,  24(sp)
 40000c8:	d9400617 	ldw	r5,24(sp)
        ldw   r6,  28(sp)
 40000cc:	d9800717 	ldw	r6,28(sp)
        ldw   r7,  32(sp)
 40000d0:	d9c00817 	ldw	r7,32(sp)

#if defined(ALT_EXCEPTION_STACK) && defined(ALT_STACK_CHECK)
        ldw   et, %gprel(alt_exception_old_stack_limit)(gp)
#endif

        ldw   r8,  36(sp)
 40000d4:	da000917 	ldw	r8,36(sp)
        ldw   r9,  40(sp)
 40000d8:	da400a17 	ldw	r9,40(sp)
        ldw   r10, 44(sp)
 40000dc:	da800b17 	ldw	r10,44(sp)
        ldw   r11, 48(sp)
 40000e0:	dac00c17 	ldw	r11,48(sp)
        ldw   r12, 52(sp)
 40000e4:	db000d17 	ldw	r12,52(sp)
        ldw   r13, 56(sp)
 40000e8:	db400e17 	ldw	r13,56(sp)
        ldw   r14, 60(sp)
 40000ec:	db800f17 	ldw	r14,60(sp)
        ldw   r15, 64(sp)
 40000f0:	dbc01017 	ldw	r15,64(sp)
        stw   et, %gprel(alt_stack_limit_value)(gp)
        stw   zero, %gprel(alt_exception_old_stack_limit)(gp)
#endif /* ALT_STACK_CHECK */
        ldw   sp,  76(sp)
#else /* ALT_EXCEPTION_STACK disabled */
        addi  sp, sp, 76
 40000f4:	dec01304 	addi	sp,sp,76

        /*
         * Return to the interrupted instruction.
         */

        eret
 40000f8:	ef80083a 	eret

040000fc <alt_irq_handler>:
 * instruction is present if the macro ALT_CI_INTERRUPT_VECTOR defined.
 */

void alt_irq_handler (void) __attribute__ ((section (".exceptions")));
void alt_irq_handler (void)
{
 40000fc:	defff904 	addi	sp,sp,-28
 4000100:	dfc00615 	stw	ra,24(sp)
 4000104:	df000515 	stw	fp,20(sp)
 4000108:	df000504 	addi	fp,sp,20
  
  /*
   * Notify the operating system that we are at interrupt level.
   */ 
  
  ALT_OS_INT_ENTER();
 400010c:	0001883a 	nop
#ifndef NIOS2_EIC_PRESENT
static ALT_INLINE alt_u32 ALT_ALWAYS_INLINE alt_irq_pending (void)
{
  alt_u32 active;

  NIOS2_READ_IPENDING (active);
 4000110:	0005313a 	rdctl	r2,ipending
 4000114:	e0bffe15 	stw	r2,-8(fp)

  return active;
 4000118:	e0bffe17 	ldw	r2,-8(fp)
   * Consider the case where the high priority interupt is asserted during
   * the interrupt entry sequence for a lower priority interrupt to see why
   * this is the case.
   */

  active = alt_irq_pending ();
 400011c:	e0bffb15 	stw	r2,-20(fp)

  do
  {
    i = 0;
 4000120:	e03ffd15 	stw	zero,-12(fp)
    mask = 1;
 4000124:	00800044 	movi	r2,1
 4000128:	e0bffc15 	stw	r2,-16(fp)
     * called to clear the interrupt condition.
     */

    do
    {
      if (active & mask)
 400012c:	e0fffb17 	ldw	r3,-20(fp)
 4000130:	e0bffc17 	ldw	r2,-16(fp)
 4000134:	1884703a 	and	r2,r3,r2
 4000138:	10001426 	beq	r2,zero,400018c <alt_irq_handler+0x90>
      { 
#ifdef ALT_ENHANCED_INTERRUPT_API_PRESENT
        alt_irq[i].handler(alt_irq[i].context); 
 400013c:	008100b4 	movhi	r2,1026
 4000140:	10b05104 	addi	r2,r2,-16060
 4000144:	e0fffd17 	ldw	r3,-12(fp)
 4000148:	180690fa 	slli	r3,r3,3
 400014c:	10c5883a 	add	r2,r2,r3
 4000150:	10c00017 	ldw	r3,0(r2)
 4000154:	008100b4 	movhi	r2,1026
 4000158:	10b05104 	addi	r2,r2,-16060
 400015c:	e13ffd17 	ldw	r4,-12(fp)
 4000160:	200890fa 	slli	r4,r4,3
 4000164:	1105883a 	add	r2,r2,r4
 4000168:	10800104 	addi	r2,r2,4
 400016c:	10800017 	ldw	r2,0(r2)
 4000170:	1009883a 	mov	r4,r2
 4000174:	183ee83a 	callr	r3
#else
        alt_irq[i].handler(alt_irq[i].context, i); 
#endif
        break;
 4000178:	0001883a 	nop
#ifndef NIOS2_EIC_PRESENT
static ALT_INLINE alt_u32 ALT_ALWAYS_INLINE alt_irq_pending (void)
{
  alt_u32 active;

  NIOS2_READ_IPENDING (active);
 400017c:	0005313a 	rdctl	r2,ipending
 4000180:	e0bfff15 	stw	r2,-4(fp)

  return active;
 4000184:	e0bfff17 	ldw	r2,-4(fp)
 4000188:	00000706 	br	40001a8 <alt_irq_handler+0xac>
      }
      mask <<= 1;
 400018c:	e0bffc17 	ldw	r2,-16(fp)
 4000190:	1085883a 	add	r2,r2,r2
 4000194:	e0bffc15 	stw	r2,-16(fp)
      i++;
 4000198:	e0bffd17 	ldw	r2,-12(fp)
 400019c:	10800044 	addi	r2,r2,1
 40001a0:	e0bffd15 	stw	r2,-12(fp)

    } while (1);
 40001a4:	003fe106 	br	400012c <__alt_data_end+0xfc00012c>

    active = alt_irq_pending ();
 40001a8:	e0bffb15 	stw	r2,-20(fp)
    
  } while (active);
 40001ac:	e0bffb17 	ldw	r2,-20(fp)
 40001b0:	103fdb1e 	bne	r2,zero,4000120 <__alt_data_end+0xfc000120>

  /*
   * Notify the operating system that interrupt processing is complete.
   */ 

  ALT_OS_INT_EXIT();
 40001b4:	0001883a 	nop
}
 40001b8:	0001883a 	nop
 40001bc:	e037883a 	mov	sp,fp
 40001c0:	dfc00117 	ldw	ra,4(sp)
 40001c4:	df000017 	ldw	fp,0(sp)
 40001c8:	dec00204 	addi	sp,sp,8
 40001cc:	f800283a 	ret

040001d0 <alt_instruction_exception_entry>:
 * that handler if it has been registered. Absent a handler, it will
 * break break or hang as discussed below.
 */
int 
alt_instruction_exception_entry (alt_u32 exception_pc)
{
 40001d0:	defffb04 	addi	sp,sp,-20
 40001d4:	dfc00415 	stw	ra,16(sp)
 40001d8:	df000315 	stw	fp,12(sp)
 40001dc:	df000304 	addi	fp,sp,12
 40001e0:	e13fff15 	stw	r4,-4(fp)
  cause = ( (cause & NIOS2_EXCEPTION_REG_CAUSE_MASK) >>
              NIOS2_EXCEPTION_REG_CAUSE_OFST );

  NIOS2_READ_BADADDR(badaddr);
#else
  cause = NIOS2_EXCEPTION_CAUSE_NOT_PRESENT;
 40001e4:	00bfffc4 	movi	r2,-1
 40001e8:	e0bffd15 	stw	r2,-12(fp)
  badaddr = 0;
 40001ec:	e03ffe15 	stw	zero,-8(fp)
#endif /* NIOS2_HAS_EXTRA_EXCEPTION_INFO */

  if(alt_instruction_exception_handler) {
 40001f0:	d0a76a17 	ldw	r2,-25176(gp)
 40001f4:	10000726 	beq	r2,zero,4000214 <alt_instruction_exception_entry+0x44>
     * Call handler. Its return value indicates whether the exception-causing
     * instruction should be re-issued. The code that called us,
     * alt_eceptions_entry.S, will look at this value and adjust the ea
     * register as necessary
     */
    return alt_instruction_exception_handler(cause, exception_pc, badaddr);
 40001f8:	d0a76a17 	ldw	r2,-25176(gp)
 40001fc:	e0fffd17 	ldw	r3,-12(fp)
 4000200:	e1bffe17 	ldw	r6,-8(fp)
 4000204:	e17fff17 	ldw	r5,-4(fp)
 4000208:	1809883a 	mov	r4,r3
 400020c:	103ee83a 	callr	r2
 4000210:	00000206 	br	400021c <alt_instruction_exception_entry+0x4c>
   *    (a peripheral which negates its interrupt output before its
   *    interrupt handler has been executed will cause spurious interrupts)
   */
  else {
#ifdef NIOS2_HAS_DEBUG_STUB
    NIOS2_BREAK();
 4000214:	003da03a 	break	0
      ;
#endif /* NIOS2_HAS_DEBUG_STUB */
  }

  /* We should not get here. Remove compiler warning. */
  return NIOS2_EXCEPTION_RETURN_REISSUE_INST;
 4000218:	0005883a 	mov	r2,zero
}
 400021c:	e037883a 	mov	sp,fp
 4000220:	dfc00117 	ldw	ra,4(sp)
 4000224:	df000017 	ldw	fp,0(sp)
 4000228:	dec00204 	addi	sp,sp,8
 400022c:	f800283a 	ret

Disassembly of section .text:

04000230 <_start>:

    /*
     * Now that the caches are initialized, set up the stack pointer and global pointer.
     * The values provided by the linker are assumed to be correctly aligned.
     */
    movhi sp, %hi(__alt_stack_pointer)
 4000230:	06c20034 	movhi	sp,2048
    ori sp, sp, %lo(__alt_stack_pointer)
 4000234:	dec00014 	ori	sp,sp,0
    movhi gp, %hi(_gp)
 4000238:	068100b4 	movhi	gp,1026
    ori gp, gp, %lo(_gp)
 400023c:	d688dc14 	ori	gp,gp,9072
 */
#ifndef ALT_SIM_OPTIMIZE
    /* Log that the BSS is about to be cleared. */
    ALT_LOG_PUTS(alt_log_msg_bss)

    movhi r2, %hi(__bss_start)
 4000240:	00810074 	movhi	r2,1025
    ori r2, r2, %lo(__bss_start)
 4000244:	10b03314 	ori	r2,r2,49356

    movhi r3, %hi(__bss_end)
 4000248:	00c10074 	movhi	r3,1025
    ori r3, r3, %lo(__bss_end)
 400024c:	18f09114 	ori	r3,r3,49732

    beq r2, r3, 1f
 4000250:	10c00326 	beq	r2,r3,4000260 <_start+0x30>

0:
    stw zero, (r2)
 4000254:	10000015 	stw	zero,0(r2)
    addi r2, r2, 4
 4000258:	10800104 	addi	r2,r2,4
    bltu r2, r3, 0b
 400025c:	10fffd36 	bltu	r2,r3,4000254 <__alt_data_end+0xfc000254>
     * section aren't defined until alt_load() has been called).
     */
    mov   et, zero
#endif

    call alt_load
 4000260:	401473c0 	call	401473c <alt_load>

    /* Log that alt_main is about to be called. */
    ALT_LOG_PUTS(alt_log_msg_alt_main)

    /* Call the C entry point. It should never return. */
    call alt_main
 4000264:	40148d80 	call	40148d8 <alt_main>

04000268 <alt_after_alt_main>:

    /* Wait in infinite loop in case alt_main does return. */
alt_after_alt_main:
    br alt_after_alt_main
 4000268:	003fff06 	br	4000268 <__alt_data_end+0xfc000268>

0400026c <rxCallback>:
}

void rxCallback(void * ctx)
{
	alt_32* rx_done = ctx;
	(*rx_done)++;
 400026c:	20800017 	ldw	r2,0(r4)
 4000270:	10800044 	addi	r2,r2,1
 4000274:	20800015 	stw	r2,0(r4)
 4000278:	f800283a 	ret

0400027c <txCallback>:
 400027c:	20800017 	ldw	r2,0(r4)
 4000280:	10800044 	addi	r2,r2,1
 4000284:	20800015 	stw	r2,0(r4)
 4000288:	f800283a 	ret

0400028c <printHWError>:
}

void printHWError(int status)
{
	if (status == 0) { printf("No error\n"); }
 400028c:	20000926 	beq	r4,zero,40002b4 <printHWError+0x28>
	else if (status == 1) { printf("Failed to open tx SGDMA\n"); }
 4000290:	00800044 	movi	r2,1
 4000294:	20800d26 	beq	r4,r2,40002cc <printHWError+0x40>
	else if (status == 2) { printf("Failed to open rx SGDMA\n"); }
 4000298:	00800084 	movi	r2,2
 400029c:	20800e26 	beq	r4,r2,40002d8 <printHWError+0x4c>
	else if (status == 3) { printf("Failed to allocate descriptors\n"); }
 40002a0:	008000c4 	movi	r2,3
 40002a4:	20800626 	beq	r4,r2,40002c0 <printHWError+0x34>
	else { printf("Unknown error\n"); }
 40002a8:	01010074 	movhi	r4,1025
 40002ac:	211f6304 	addi	r4,r4,32140
 40002b0:	4003f341 	jmpi	4003f34 <puts>
	(*rx_done)++;
}

void printHWError(int status)
{
	if (status == 0) { printf("No error\n"); }
 40002b4:	01010074 	movhi	r4,1025
 40002b8:	211f4c04 	addi	r4,r4,32048
 40002bc:	4003f341 	jmpi	4003f34 <puts>
	else if (status == 1) { printf("Failed to open tx SGDMA\n"); }
	else if (status == 2) { printf("Failed to open rx SGDMA\n"); }
	else if (status == 3) { printf("Failed to allocate descriptors\n"); }
 40002c0:	01010074 	movhi	r4,1025
 40002c4:	211f5b04 	addi	r4,r4,32108
 40002c8:	4003f341 	jmpi	4003f34 <puts>
}

void printHWError(int status)
{
	if (status == 0) { printf("No error\n"); }
	else if (status == 1) { printf("Failed to open tx SGDMA\n"); }
 40002cc:	01010074 	movhi	r4,1025
 40002d0:	211f4f04 	addi	r4,r4,32060
 40002d4:	4003f341 	jmpi	4003f34 <puts>
	else if (status == 2) { printf("Failed to open rx SGDMA\n"); }
 40002d8:	01010074 	movhi	r4,1025
 40002dc:	211f5504 	addi	r4,r4,32084
 40002e0:	4003f341 	jmpi	4003f34 <puts>

040002e4 <cleanupHW>:
	else { printf("Unknown error\n"); }
}

void cleanupHW(int status)
{
	if (bufferPtr != NULL) { free(bufferPtr); }
 40002e4:	d1275a17 	ldw	r4,-25240(gp)
 40002e8:	20000126 	beq	r4,zero,40002f0 <cleanupHW+0xc>
 40002ec:	40033841 	jmpi	4003384 <free>
 40002f0:	f800283a 	ret

040002f4 <checkHWStatus>:
}

int checkHWStatus(int status)
{
	if (status != 0)
 40002f4:	2000021e 	bne	r4,zero,4000300 <checkHWStatus+0xc>
	{
		printHWError(status);
		cleanupHW(status);
		return 1;
	}
	return 0;
 40002f8:	0005883a 	mov	r2,zero
}
 40002fc:	f800283a 	ret
{
	if (bufferPtr != NULL) { free(bufferPtr); }
}

int checkHWStatus(int status)
{
 4000300:	deffff04 	addi	sp,sp,-4
 4000304:	dfc00015 	stw	ra,0(sp)
}

void printHWError(int status)
{
	if (status == 0) { printf("No error\n"); }
	else if (status == 1) { printf("Failed to open tx SGDMA\n"); }
 4000308:	00800044 	movi	r2,1
 400030c:	20801426 	beq	r4,r2,4000360 <checkHWStatus+0x6c>
	else if (status == 2) { printf("Failed to open rx SGDMA\n"); }
 4000310:	00800084 	movi	r2,2
 4000314:	20801626 	beq	r4,r2,4000370 <checkHWStatus+0x7c>
	else if (status == 3) { printf("Failed to allocate descriptors\n"); }
 4000318:	008000c4 	movi	r2,3
 400031c:	20800c26 	beq	r4,r2,4000350 <checkHWStatus+0x5c>
	else { printf("Unknown error\n"); }
 4000320:	01010074 	movhi	r4,1025
 4000324:	211f6304 	addi	r4,r4,32140
 4000328:	4003f340 	call	4003f34 <puts>
}

void cleanupHW(int status)
{
	if (bufferPtr != NULL) { free(bufferPtr); }
 400032c:	d1275a17 	ldw	r4,-25240(gp)
 4000330:	20000526 	beq	r4,zero,4000348 <checkHWStatus+0x54>
 4000334:	40033840 	call	4003384 <free>
{
	if (status != 0)
	{
		printHWError(status);
		cleanupHW(status);
		return 1;
 4000338:	00800044 	movi	r2,1
	}
	return 0;
}
 400033c:	dfc00017 	ldw	ra,0(sp)
 4000340:	dec00104 	addi	sp,sp,4
 4000344:	f800283a 	ret
{
	if (status != 0)
	{
		printHWError(status);
		cleanupHW(status);
		return 1;
 4000348:	00800044 	movi	r2,1
 400034c:	003ffb06 	br	400033c <__alt_data_end+0xfc00033c>
void printHWError(int status)
{
	if (status == 0) { printf("No error\n"); }
	else if (status == 1) { printf("Failed to open tx SGDMA\n"); }
	else if (status == 2) { printf("Failed to open rx SGDMA\n"); }
	else if (status == 3) { printf("Failed to allocate descriptors\n"); }
 4000350:	01010074 	movhi	r4,1025
 4000354:	211f5b04 	addi	r4,r4,32108
 4000358:	4003f340 	call	4003f34 <puts>
 400035c:	003ff306 	br	400032c <__alt_data_end+0xfc00032c>
}

void printHWError(int status)
{
	if (status == 0) { printf("No error\n"); }
	else if (status == 1) { printf("Failed to open tx SGDMA\n"); }
 4000360:	01010074 	movhi	r4,1025
 4000364:	211f4f04 	addi	r4,r4,32060
 4000368:	4003f340 	call	4003f34 <puts>
 400036c:	003fef06 	br	400032c <__alt_data_end+0xfc00032c>
	else if (status == 2) { printf("Failed to open rx SGDMA\n"); }
 4000370:	01010074 	movhi	r4,1025
 4000374:	211f5504 	addi	r4,r4,32084
 4000378:	4003f340 	call	4003f34 <puts>
 400037c:	003feb06 	br	400032c <__alt_data_end+0xfc00032c>

04000380 <initHW>:
	return 0;
}

int initHW()
{
	sgdma_tx = alt_avalon_sgdma_open(SGDMA_M2S_NAME);
 4000380:	01010074 	movhi	r4,1025
	}
	return 0;
}

int initHW()
{
 4000384:	deffff04 	addi	sp,sp,-4
	sgdma_tx = alt_avalon_sgdma_open(SGDMA_M2S_NAME);
 4000388:	211f6704 	addi	r4,r4,32156
	}
	return 0;
}

int initHW()
{
 400038c:	dfc00015 	stw	ra,0(sp)
	sgdma_tx = alt_avalon_sgdma_open(SGDMA_M2S_NAME);
 4000390:	40161e80 	call	40161e8 <alt_avalon_sgdma_open>
 4000394:	d0a75c15 	stw	r2,-25232(gp)
	if (sgdma_tx == NULL) {return 1;}
 4000398:	10002526 	beq	r2,zero,4000430 <initHW+0xb0>

	sgdma_rx = alt_avalon_sgdma_open(SGDMA_S2M_NAME);
 400039c:	01010074 	movhi	r4,1025
 40003a0:	211f6b04 	addi	r4,r4,32172
 40003a4:	40161e80 	call	40161e8 <alt_avalon_sgdma_open>
 40003a8:	d0a75b15 	stw	r2,-25236(gp)
	if (sgdma_rx == NULL) {return 2;}
 40003ac:	10001c26 	beq	r2,zero,4000420 <initHW+0xa0>

	bufferPtr = malloc(((BUFFER_SIZE + 1) * 5) * ALTERA_AVALON_SGDMA_DESCRIPTOR_SIZE);
 40003b0:	010000f4 	movhi	r4,3
 40003b4:	21202804 	addi	r4,r4,-32608
 40003b8:	40033700 	call	4003370 <malloc>
 40003bc:	d0a75a15 	stw	r2,-25240(gp)
	if (bufferPtr == NULL) {return 3;}
 40003c0:	10001f26 	beq	r2,zero,4000440 <initHW+0xc0>

	descPtr = (alt_sgdma_descriptor*)((alt_32)bufferPtr & ~(ALTERA_AVALON_SGDMA_DESCRIPTOR_SIZE - 1));
 40003c4:	00fff804 	movi	r3,-32
 40003c8:	10c6703a 	and	r3,r2,r3
	if (descPtr < bufferPtr) { descPtr++; }
 40003cc:	1880012e 	bgeu	r3,r2,40003d4 <initHW+0x54>
 40003d0:	18c00804 	addi	r3,r3,32

	alt_u32 controlMask = (ALTERA_AVALON_SGDMA_CONTROL_IE_GLOBAL_MSK | ALTERA_AVALON_SGDMA_CONTROL_IE_CHAIN_COMPLETED_MSK | ALTERA_AVALON_SGDMA_CONTROL_PARK_MSK);
	alt_avalon_sgdma_register_callback(sgdma_tx, txCallback, controlMask, &tx_done);
 40003d4:	d1275c17 	ldw	r4,-25232(gp)
 40003d8:	018000b4 	movhi	r6,2
 40003dc:	01410034 	movhi	r5,1024
 40003e0:	31800604 	addi	r6,r6,24
 40003e4:	29409f04 	addi	r5,r5,636
 40003e8:	d1e75804 	addi	r7,gp,-25248

	bufferPtr = malloc(((BUFFER_SIZE + 1) * 5) * ALTERA_AVALON_SGDMA_DESCRIPTOR_SIZE);
	if (bufferPtr == NULL) {return 3;}

	descPtr = (alt_sgdma_descriptor*)((alt_32)bufferPtr & ~(ALTERA_AVALON_SGDMA_DESCRIPTOR_SIZE - 1));
	if (descPtr < bufferPtr) { descPtr++; }
 40003ec:	d0e75915 	stw	r3,-25244(gp)

	alt_u32 controlMask = (ALTERA_AVALON_SGDMA_CONTROL_IE_GLOBAL_MSK | ALTERA_AVALON_SGDMA_CONTROL_IE_CHAIN_COMPLETED_MSK | ALTERA_AVALON_SGDMA_CONTROL_PARK_MSK);
	alt_avalon_sgdma_register_callback(sgdma_tx, txCallback, controlMask, &tx_done);
 40003f0:	401607c0 	call	401607c <alt_avalon_sgdma_register_callback>
	alt_avalon_sgdma_register_callback(sgdma_rx, rxCallback, controlMask, &rx_done);
 40003f4:	d1275b17 	ldw	r4,-25236(gp)
 40003f8:	018000b4 	movhi	r6,2
 40003fc:	01410034 	movhi	r5,1024
 4000400:	31800604 	addi	r6,r6,24
 4000404:	29409b04 	addi	r5,r5,620
 4000408:	d1e75704 	addi	r7,gp,-25252
 400040c:	401607c0 	call	401607c <alt_avalon_sgdma_register_callback>

	return 0;
 4000410:	0005883a 	mov	r2,zero
}
 4000414:	dfc00017 	ldw	ra,0(sp)
 4000418:	dec00104 	addi	sp,sp,4
 400041c:	f800283a 	ret
{
	sgdma_tx = alt_avalon_sgdma_open(SGDMA_M2S_NAME);
	if (sgdma_tx == NULL) {return 1;}

	sgdma_rx = alt_avalon_sgdma_open(SGDMA_S2M_NAME);
	if (sgdma_rx == NULL) {return 2;}
 4000420:	00800084 	movi	r2,2
	alt_u32 controlMask = (ALTERA_AVALON_SGDMA_CONTROL_IE_GLOBAL_MSK | ALTERA_AVALON_SGDMA_CONTROL_IE_CHAIN_COMPLETED_MSK | ALTERA_AVALON_SGDMA_CONTROL_PARK_MSK);
	alt_avalon_sgdma_register_callback(sgdma_tx, txCallback, controlMask, &tx_done);
	alt_avalon_sgdma_register_callback(sgdma_rx, rxCallback, controlMask, &rx_done);

	return 0;
}
 4000424:	dfc00017 	ldw	ra,0(sp)
 4000428:	dec00104 	addi	sp,sp,4
 400042c:	f800283a 	ret
}

int initHW()
{
	sgdma_tx = alt_avalon_sgdma_open(SGDMA_M2S_NAME);
	if (sgdma_tx == NULL) {return 1;}
 4000430:	00800044 	movi	r2,1
	alt_u32 controlMask = (ALTERA_AVALON_SGDMA_CONTROL_IE_GLOBAL_MSK | ALTERA_AVALON_SGDMA_CONTROL_IE_CHAIN_COMPLETED_MSK | ALTERA_AVALON_SGDMA_CONTROL_PARK_MSK);
	alt_avalon_sgdma_register_callback(sgdma_tx, txCallback, controlMask, &tx_done);
	alt_avalon_sgdma_register_callback(sgdma_rx, rxCallback, controlMask, &rx_done);

	return 0;
}
 4000434:	dfc00017 	ldw	ra,0(sp)
 4000438:	dec00104 	addi	sp,sp,4
 400043c:	f800283a 	ret

	sgdma_rx = alt_avalon_sgdma_open(SGDMA_S2M_NAME);
	if (sgdma_rx == NULL) {return 2;}

	bufferPtr = malloc(((BUFFER_SIZE + 1) * 5) * ALTERA_AVALON_SGDMA_DESCRIPTOR_SIZE);
	if (bufferPtr == NULL) {return 3;}
 4000440:	008000c4 	movi	r2,3
	alt_u32 controlMask = (ALTERA_AVALON_SGDMA_CONTROL_IE_GLOBAL_MSK | ALTERA_AVALON_SGDMA_CONTROL_IE_CHAIN_COMPLETED_MSK | ALTERA_AVALON_SGDMA_CONTROL_PARK_MSK);
	alt_avalon_sgdma_register_callback(sgdma_tx, txCallback, controlMask, &tx_done);
	alt_avalon_sgdma_register_callback(sgdma_rx, rxCallback, controlMask, &rx_done);

	return 0;
}
 4000444:	dfc00017 	ldw	ra,0(sp)
 4000448:	dec00104 	addi	sp,sp,4
 400044c:	f800283a 	ret

04000450 <scaleHW>:

int scaleHW(unsigned char* source, unsigned char* destination, int sourceWidth, int sourceHeight, int x, int y, int width, int height, int xScale, int yScale)
{
 4000450:	deffef04 	addi	sp,sp,-68
	int dwidth = xScale > 0 ? width * xScale : width / -xScale;
 4000454:	d8c01517 	ldw	r3,84(sp)

	return 0;
}

int scaleHW(unsigned char* source, unsigned char* destination, int sourceWidth, int sourceHeight, int x, int y, int width, int height, int xScale, int yScale)
{
 4000458:	df000f15 	stw	fp,60(sp)
 400045c:	dd000b15 	stw	r20,44(sp)
 4000460:	dcc00a15 	stw	r19,40(sp)
 4000464:	dc000715 	stw	r16,28(sp)
 4000468:	dfc01015 	stw	ra,64(sp)
 400046c:	ddc00e15 	stw	r23,56(sp)
 4000470:	dd800d15 	stw	r22,52(sp)
 4000474:	dd400c15 	stw	r21,48(sp)
 4000478:	dc800915 	stw	r18,36(sp)
 400047c:	dc400815 	stw	r17,32(sp)
 4000480:	d9400415 	stw	r5,16(sp)
 4000484:	2039883a 	mov	fp,r4
 4000488:	3029883a 	mov	r20,r6
 400048c:	dc001417 	ldw	r16,80(sp)
 4000490:	dcc01617 	ldw	r19,88(sp)
	int dwidth = xScale > 0 ? width * xScale : width / -xScale;
 4000494:	00c07f0e 	bge	zero,r3,4000694 <scaleHW+0x244>
 4000498:	d9401317 	ldw	r5,76(sp)
 400049c:	1809883a 	mov	r4,r3
 40004a0:	4001a140 	call	4001a14 <__mulsi3>
 40004a4:	102b883a 	mov	r21,r2
	int dheight = yScale > 0 ? height * yScale : height / -yScale;
 40004a8:	04c0720e 	bge	zero,r19,4000674 <scaleHW+0x224>
 40004ac:	800b883a 	mov	r5,r16
 40004b0:	9809883a 	mov	r4,r19
 40004b4:	4001a140 	call	4001a14 <__mulsi3>
 40004b8:	1025883a 	mov	r18,r2

	int descIdx = 0;

	alt_sgdma_descriptor* tx_desc = &descPtr[descIdx];
 40004bc:	d5e75917 	ldw	r23,-25244(gp)
	for(int i = 0; i < height; i++)
 40004c0:	0400a20e 	bge	zero,r16,400074c <scaleHW+0x2fc>
 40004c4:	d9001217 	ldw	r4,72(sp)
 40004c8:	a00b883a 	mov	r5,r20
 40004cc:	4001a140 	call	4001a14 <__mulsi3>
 40004d0:	d8c01117 	ldw	r3,68(sp)
 40004d4:	b809883a 	mov	r4,r23
 40004d8:	10c5883a 	add	r2,r2,r3
 40004dc:	d8c01317 	ldw	r3,76(sp)
 40004e0:	e0a3883a 	add	r17,fp,r2
 40004e4:	0039883a 	mov	fp,zero
 40004e8:	1dbfffcc 	andi	r22,r3,65535
 40004ec:	00000106 	br	40004f4 <scaleHW+0xa4>
 40004f0:	d1275917 	ldw	r4,-25244(gp)
 40004f4:	e006917a 	slli	r3,fp,5
	{
		alt_avalon_sgdma_construct_mem_to_stream_desc(&descPtr[descIdx], &descPtr[descIdx + 1], (alt_u32*)&source[PIXEL(x, y + i, sourceWidth)], width, 0, 0, 0, 0);
 40004f8:	880d883a 	mov	r6,r17
 40004fc:	d8000315 	stw	zero,12(sp)
 4000500:	19400804 	addi	r5,r3,32
 4000504:	214b883a 	add	r5,r4,r5
 4000508:	d8000215 	stw	zero,8(sp)
 400050c:	20c9883a 	add	r4,r4,r3
 4000510:	d8000115 	stw	zero,4(sp)
 4000514:	d8000015 	stw	zero,0(sp)
 4000518:	b00f883a 	mov	r7,r22
		descIdx++;
 400051c:	e7000044 	addi	fp,fp,1
	int descIdx = 0;

	alt_sgdma_descriptor* tx_desc = &descPtr[descIdx];
	for(int i = 0; i < height; i++)
	{
		alt_avalon_sgdma_construct_mem_to_stream_desc(&descPtr[descIdx], &descPtr[descIdx + 1], (alt_u32*)&source[PIXEL(x, y + i, sourceWidth)], width, 0, 0, 0, 0);
 4000520:	4015f700 	call	4015f70 <alt_avalon_sgdma_construct_mem_to_stream_desc>
 4000524:	8d23883a 	add	r17,r17,r20
	int dheight = yScale > 0 ? height * yScale : height / -yScale;

	int descIdx = 0;

	alt_sgdma_descriptor* tx_desc = &descPtr[descIdx];
	for(int i = 0; i < height; i++)
 4000528:	873ff11e 	bne	r16,fp,40004f0 <__alt_data_end+0xfc0004f0>
 400052c:	8004917a 	slli	r2,r16,5
 4000530:	d1675917 	ldw	r5,-25244(gp)
 4000534:	87000044 	addi	fp,r16,1
 4000538:	15800804 	addi	r22,r2,32
	{
		alt_avalon_sgdma_construct_mem_to_stream_desc(&descPtr[descIdx], &descPtr[descIdx + 1], (alt_u32*)&source[PIXEL(x, y + i, sourceWidth)], width, 0, 0, 0, 0);
		descIdx++;
	}
	descPtr[descIdx++].control = 0;
 400053c:	2885883a 	add	r2,r5,r2

	alt_sgdma_descriptor* rx_desc = &descPtr[descIdx];
 4000540:	2dad883a 	add	r22,r5,r22
	for(int i = 0; i < height; i++)
	{
		alt_avalon_sgdma_construct_mem_to_stream_desc(&descPtr[descIdx], &descPtr[descIdx + 1], (alt_u32*)&source[PIXEL(x, y + i, sourceWidth)], width, 0, 0, 0, 0);
		descIdx++;
	}
	descPtr[descIdx++].control = 0;
 4000544:	100007c5 	stb	zero,31(r2)

	alt_sgdma_descriptor* rx_desc = &descPtr[descIdx];
 4000548:	dd800515 	stw	r22,20(sp)
	for(int i = 0; i < dheight; i++)
 400054c:	0480840e 	bge	zero,r18,4000760 <scaleHW+0x310>
 4000550:	e008917a 	slli	r4,fp,5
 4000554:	ad3fffcc 	andi	r20,r21,65535
 4000558:	dd800417 	ldw	r22,16(sp)
 400055c:	9723883a 	add	r17,r18,fp
 4000560:	00000206 	br	400056c <scaleHW+0x11c>
 4000564:	d1675917 	ldw	r5,-25244(gp)
 4000568:	9009883a 	mov	r4,r18
 400056c:	24800804 	addi	r18,r4,32
	{
		alt_avalon_sgdma_construct_stream_to_mem_desc(&descPtr[descIdx], &descPtr[descIdx + 1], (alt_u32*)&destination[PIXEL(0, i, dwidth)], dwidth, 0);
 4000570:	b00d883a 	mov	r6,r22
 4000574:	2909883a 	add	r4,r5,r4
 4000578:	d8000015 	stw	zero,0(sp)
 400057c:	2c8b883a 	add	r5,r5,r18
 4000580:	a00f883a 	mov	r7,r20
		descIdx++;
 4000584:	e7000044 	addi	fp,fp,1
	descPtr[descIdx++].control = 0;

	alt_sgdma_descriptor* rx_desc = &descPtr[descIdx];
	for(int i = 0; i < dheight; i++)
	{
		alt_avalon_sgdma_construct_stream_to_mem_desc(&descPtr[descIdx], &descPtr[descIdx + 1], (alt_u32*)&destination[PIXEL(0, i, dwidth)], dwidth, 0);
 4000588:	4015e980 	call	4015e98 <alt_avalon_sgdma_construct_stream_to_mem_desc>
 400058c:	b56d883a 	add	r22,r22,r21
		descIdx++;
	}
	descPtr[descIdx++].control = 0;

	alt_sgdma_descriptor* rx_desc = &descPtr[descIdx];
	for(int i = 0; i < dheight; i++)
 4000590:	e47ff41e 	bne	fp,r17,4000564 <__alt_data_end+0xfc000564>
 4000594:	e038917a 	slli	fp,fp,5
 4000598:	d0a75917 	ldw	r2,-25244(gp)
 400059c:	1739883a 	add	fp,r2,fp
		alt_avalon_sgdma_construct_stream_to_mem_desc(&descPtr[descIdx], &descPtr[descIdx + 1], (alt_u32*)&destination[PIXEL(0, i, dwidth)], dwidth, 0);
		descIdx++;
	}
	descPtr[descIdx++].control = 0;

	alt_u32 cr = (xScale > 0) << X_UPSCALE_OFFSET | (yScale > 0) << Y_UPSCALE_OFFSET;
 40005a0:	d8c01517 	ldw	r3,84(sp)
	for(int i = 0; i < dheight; i++)
	{
		alt_avalon_sgdma_construct_stream_to_mem_desc(&descPtr[descIdx], &descPtr[descIdx + 1], (alt_u32*)&destination[PIXEL(0, i, dwidth)], dwidth, 0);
		descIdx++;
	}
	descPtr[descIdx++].control = 0;
 40005a4:	e00007c5 	stb	zero,31(fp)

	alt_u32 cr = (xScale > 0) << X_UPSCALE_OFFSET | (yScale > 0) << Y_UPSCALE_OFFSET;
 40005a8:	00c02e0e 	bge	zero,r3,4000664 <scaleHW+0x214>
 40005ac:	00800904 	movi	r2,36
 40005b0:	00c00104 	movi	r3,4
 40005b4:	04c0220e 	bge	zero,r19,4000640 <scaleHW+0x1f0>
	xScale = xScale > 0 ? xScale : -xScale;
	yScale = yScale > 0 ? yScale : -yScale;
	cr |= (xScale - 1) << X_SCALE_OFFSET | (yScale - 1) << Y_SCALE_OFFSET;
	IOWR_32DIRECT(UP_DOWN_SCALER_BASE, CR_ADDR, cr);
 40005b8:	98002316 	blt	r19,zero,4000648 <scaleHW+0x1f8>
 40005bc:	dc801517 	ldw	r18,84(sp)
 40005c0:	9cffffc4 	addi	r19,r19,-1
 40005c4:	982690fa 	slli	r19,r19,3
 40005c8:	90002416 	blt	r18,zero,400065c <scaleHW+0x20c>
 40005cc:	94bfffc4 	addi	r18,r18,-1
 40005d0:	9ca4b03a 	or	r18,r19,r18
 40005d4:	90a4b03a 	or	r18,r18,r2
 40005d8:	00820034 	movhi	r2,2048
 40005dc:	10844204 	addi	r2,r2,4360
 40005e0:	14800035 	stwio	r18,0(r2)
	alt_u32 wh = width << WIDTH_OFFSET | height << HEIGHT_OFFSET;
	IOWR_32DIRECT(UP_DOWN_SCALER_BASE, WH_ADDR, wh);
 40005e4:	d8c01317 	ldw	r3,76(sp)
 40005e8:	8020943a 	slli	r16,r16,16
 40005ec:	00820034 	movhi	r2,2048
 40005f0:	10844304 	addi	r2,r2,4364
 40005f4:	80e0b03a 	or	r16,r16,r3
 40005f8:	14000035 	stwio	r16,0(r2)

	if(alt_avalon_sgdma_do_async_transfer(sgdma_tx, tx_desc)) { return 4; }
 40005fc:	d1275c17 	ldw	r4,-25232(gp)
 4000600:	b80b883a 	mov	r5,r23
 4000604:	4015b6c0 	call	4015b6c <alt_avalon_sgdma_do_async_transfer>
 4000608:	10003a26 	beq	r2,zero,40006f4 <scaleHW+0x2a4>
 400060c:	00800104 	movi	r2,4

	alt_avalon_sgdma_stop(sgdma_tx);
	alt_avalon_sgdma_stop(sgdma_rx);

	return 0;
}
 4000610:	dfc01017 	ldw	ra,64(sp)
 4000614:	df000f17 	ldw	fp,60(sp)
 4000618:	ddc00e17 	ldw	r23,56(sp)
 400061c:	dd800d17 	ldw	r22,52(sp)
 4000620:	dd400c17 	ldw	r21,48(sp)
 4000624:	dd000b17 	ldw	r20,44(sp)
 4000628:	dcc00a17 	ldw	r19,40(sp)
 400062c:	dc800917 	ldw	r18,36(sp)
 4000630:	dc400817 	ldw	r17,32(sp)
 4000634:	dc000717 	ldw	r16,28(sp)
 4000638:	dec01104 	addi	sp,sp,68
 400063c:	f800283a 	ret
 4000640:	1805883a 	mov	r2,r3

	alt_u32 cr = (xScale > 0) << X_UPSCALE_OFFSET | (yScale > 0) << Y_UPSCALE_OFFSET;
	xScale = xScale > 0 ? xScale : -xScale;
	yScale = yScale > 0 ? yScale : -yScale;
	cr |= (xScale - 1) << X_SCALE_OFFSET | (yScale - 1) << Y_SCALE_OFFSET;
	IOWR_32DIRECT(UP_DOWN_SCALER_BASE, CR_ADDR, cr);
 4000644:	983fdd0e 	bge	r19,zero,40005bc <__alt_data_end+0xfc0005bc>
 4000648:	dc801517 	ldw	r18,84(sp)
 400064c:	04e7c83a 	sub	r19,zero,r19
 4000650:	9cffffc4 	addi	r19,r19,-1
 4000654:	982690fa 	slli	r19,r19,3
 4000658:	903fdc0e 	bge	r18,zero,40005cc <__alt_data_end+0xfc0005cc>
 400065c:	04a5c83a 	sub	r18,zero,r18
 4000660:	003fda06 	br	40005cc <__alt_data_end+0xfc0005cc>
 4000664:	00800804 	movi	r2,32
 4000668:	0007883a 	mov	r3,zero
		alt_avalon_sgdma_construct_stream_to_mem_desc(&descPtr[descIdx], &descPtr[descIdx + 1], (alt_u32*)&destination[PIXEL(0, i, dwidth)], dwidth, 0);
		descIdx++;
	}
	descPtr[descIdx++].control = 0;

	alt_u32 cr = (xScale > 0) << X_UPSCALE_OFFSET | (yScale > 0) << Y_UPSCALE_OFFSET;
 400066c:	04ffd216 	blt	zero,r19,40005b8 <__alt_data_end+0xfc0005b8>
 4000670:	003ff306 	br	4000640 <__alt_data_end+0xfc000640>
}

int scaleHW(unsigned char* source, unsigned char* destination, int sourceWidth, int sourceHeight, int x, int y, int width, int height, int xScale, int yScale)
{
	int dwidth = xScale > 0 ? width * xScale : width / -xScale;
	int dheight = yScale > 0 ? height * yScale : height / -yScale;
 4000674:	04cbc83a 	sub	r5,zero,r19
 4000678:	8144b03a 	or	r2,r16,r5
 400067c:	00c003c4 	movi	r3,15
 4000680:	1880152e 	bgeu	r3,r2,40006d8 <scaleHW+0x288>
 4000684:	8009883a 	mov	r4,r16
 4000688:	40018600 	call	4001860 <__divsi3>
 400068c:	1025883a 	mov	r18,r2
 4000690:	003f8a06 	br	40004bc <__alt_data_end+0xfc0004bc>
	return 0;
}

int scaleHW(unsigned char* source, unsigned char* destination, int sourceWidth, int sourceHeight, int x, int y, int width, int height, int xScale, int yScale)
{
	int dwidth = xScale > 0 ? width * xScale : width / -xScale;
 4000694:	00cbc83a 	sub	r5,zero,r3
 4000698:	d8c01317 	ldw	r3,76(sp)
 400069c:	1944b03a 	or	r2,r3,r5
 40006a0:	00c003c4 	movi	r3,15
 40006a4:	1880042e 	bgeu	r3,r2,40006b8 <scaleHW+0x268>
 40006a8:	d9001317 	ldw	r4,76(sp)
 40006ac:	40018600 	call	4001860 <__divsi3>
 40006b0:	102b883a 	mov	r21,r2
 40006b4:	003f7c06 	br	40004a8 <__alt_data_end+0xfc0004a8>
 40006b8:	d8c01317 	ldw	r3,76(sp)
 40006bc:	1804913a 	slli	r2,r3,4
 40006c0:	114ab03a 	or	r5,r2,r5
 40006c4:	008100b4 	movhi	r2,1026
 40006c8:	10a1cf04 	addi	r2,r2,-30916
 40006cc:	288b883a 	add	r5,r5,r2
 40006d0:	2d400003 	ldbu	r21,0(r5)
 40006d4:	003f7406 	br	40004a8 <__alt_data_end+0xfc0004a8>
	int dheight = yScale > 0 ? height * yScale : height / -yScale;
 40006d8:	8004913a 	slli	r2,r16,4
 40006dc:	114ab03a 	or	r5,r2,r5
 40006e0:	008100b4 	movhi	r2,1026
 40006e4:	10a1cf04 	addi	r2,r2,-30916
 40006e8:	288b883a 	add	r5,r5,r2
 40006ec:	2c800003 	ldbu	r18,0(r5)
 40006f0:	003f7206 	br	40004bc <__alt_data_end+0xfc0004bc>
	IOWR_32DIRECT(UP_DOWN_SCALER_BASE, CR_ADDR, cr);
	alt_u32 wh = width << WIDTH_OFFSET | height << HEIGHT_OFFSET;
	IOWR_32DIRECT(UP_DOWN_SCALER_BASE, WH_ADDR, wh);

	if(alt_avalon_sgdma_do_async_transfer(sgdma_tx, tx_desc)) { return 4; }
	if(alt_avalon_sgdma_do_async_transfer(sgdma_rx, rx_desc)) { return 5; }
 40006f4:	d1275b17 	ldw	r4,-25236(gp)
 40006f8:	d9400517 	ldw	r5,20(sp)
 40006fc:	4015b6c0 	call	4015b6c <alt_avalon_sgdma_do_async_transfer>
 4000700:	10000426 	beq	r2,zero,4000714 <scaleHW+0x2c4>
 4000704:	00800144 	movi	r2,5
 4000708:	003fc106 	br	4000610 <__alt_data_end+0xfc000610>

	while(tx_done == 0 || rx_done == 0) {}
 400070c:	d0e75717 	ldw	r3,-25252(gp)
 4000710:	1800051e 	bne	r3,zero,4000728 <scaleHW+0x2d8>
 4000714:	d0e75817 	ldw	r3,-25248(gp)
 4000718:	183ffc1e 	bne	r3,zero,400070c <__alt_data_end+0xfc00070c>
 400071c:	d0e75817 	ldw	r3,-25248(gp)
 4000720:	183ffc26 	beq	r3,zero,4000714 <__alt_data_end+0xfc000714>
 4000724:	003ff906 	br	400070c <__alt_data_end+0xfc00070c>

	tx_done = 0;
	rx_done = 0;

	alt_avalon_sgdma_stop(sgdma_tx);
 4000728:	d1275c17 	ldw	r4,-25232(gp)
	if(alt_avalon_sgdma_do_async_transfer(sgdma_tx, tx_desc)) { return 4; }
	if(alt_avalon_sgdma_do_async_transfer(sgdma_rx, rx_desc)) { return 5; }

	while(tx_done == 0 || rx_done == 0) {}

	tx_done = 0;
 400072c:	d0275815 	stw	zero,-25248(gp)
	rx_done = 0;

	alt_avalon_sgdma_stop(sgdma_tx);
 4000730:	d8800615 	stw	r2,24(sp)
	if(alt_avalon_sgdma_do_async_transfer(sgdma_rx, rx_desc)) { return 5; }

	while(tx_done == 0 || rx_done == 0) {}

	tx_done = 0;
	rx_done = 0;
 4000734:	d0275715 	stw	zero,-25252(gp)

	alt_avalon_sgdma_stop(sgdma_tx);
 4000738:	40161280 	call	4016128 <alt_avalon_sgdma_stop>
	alt_avalon_sgdma_stop(sgdma_rx);
 400073c:	d1275b17 	ldw	r4,-25236(gp)
 4000740:	40161280 	call	4016128 <alt_avalon_sgdma_stop>

	return 0;
 4000744:	d8800617 	ldw	r2,24(sp)
 4000748:	003fb106 	br	4000610 <__alt_data_end+0xfc000610>
	int dheight = yScale > 0 ? height * yScale : height / -yScale;

	int descIdx = 0;

	alt_sgdma_descriptor* tx_desc = &descPtr[descIdx];
	for(int i = 0; i < height; i++)
 400074c:	b80b883a 	mov	r5,r23
 4000750:	05800804 	movi	r22,32
 4000754:	0005883a 	mov	r2,zero
 4000758:	07000044 	movi	fp,1
 400075c:	003f7706 	br	400053c <__alt_data_end+0xfc00053c>
 4000760:	b039883a 	mov	fp,r22
 4000764:	003f8e06 	br	40005a0 <__alt_data_end+0xfc0005a0>

04000768 <scaleHSCD>:
}

int scaleHSCD(unsigned char* source, unsigned char* destination, int sourceWidth, int sourceHeight, int x, int y, int width, int height, int xScale, int yScale)
{
	return 0;
}
 4000768:	0005883a 	mov	r2,zero
 400076c:	f800283a 	ret

04000770 <printHelp>:
	unsigned char* destinationImage;
} Command;

void printHelp()
{
	printf("Enter command in this format <filename> (B | [R <x> <y> <w> <h>] <scale factor>)\n");
 4000770:	01010074 	movhi	r4,1025
	unsigned char* referenceImage;
	unsigned char* destinationImage;
} Command;

void printHelp()
{
 4000774:	deffff04 	addi	sp,sp,-4
	printf("Enter command in this format <filename> (B | [R <x> <y> <w> <h>] <scale factor>)\n");
 4000778:	211f6f04 	addi	r4,r4,32188
	unsigned char* referenceImage;
	unsigned char* destinationImage;
} Command;

void printHelp()
{
 400077c:	dfc00015 	stw	ra,0(sp)
	printf("Enter command in this format <filename> (B | [R <x> <y> <w> <h>] <scale factor>)\n");
 4000780:	4003f340 	call	4003f34 <puts>
	printf("B starts benchmark, no other parameters are allowed\n");
 4000784:	01010074 	movhi	r4,1025
 4000788:	211f8404 	addi	r4,r4,32272
 400078c:	4003f340 	call	4003f34 <puts>
	printf("R selects the part of the picture to scale\n");
 4000790:	01010074 	movhi	r4,1025
 4000794:	211f9104 	addi	r4,r4,32324
 4000798:	4003f340 	call	4003f34 <puts>
	printf("Scale factor is one or two numbers in range {-4, -3, -2, -1, 1, 2, 3, 4}\n");
 400079c:	01010074 	movhi	r4,1025
 40007a0:	211f9c04 	addi	r4,r4,32368
 40007a4:	4003f340 	call	4003f34 <puts>
	printf("If two numbers are specified they are x and y scaling factors respectively\n");
 40007a8:	01010074 	movhi	r4,1025
 40007ac:	211faf04 	addi	r4,r4,32444
}
 40007b0:	dfc00017 	ldw	ra,0(sp)
 40007b4:	dec00104 	addi	sp,sp,4
{
	printf("Enter command in this format <filename> (B | [R <x> <y> <w> <h>] <scale factor>)\n");
	printf("B starts benchmark, no other parameters are allowed\n");
	printf("R selects the part of the picture to scale\n");
	printf("Scale factor is one or two numbers in range {-4, -3, -2, -1, 1, 2, 3, 4}\n");
	printf("If two numbers are specified they are x and y scaling factors respectively\n");
 40007b8:	4003f341 	jmpi	4003f34 <puts>

040007bc <printError>:
}

void printError(Command* cmd)
{
	int status = cmd->status;
 40007bc:	20800007 	ldb	r2,0(r4)
	if (status == 0) { printf("No error\n"); }
 40007c0:	10001426 	beq	r2,zero,4000814 <printError+0x58>
	else if (status >= 1 && status <= 5) { printf("Failed to load image\n"); }
 40007c4:	10ffffc4 	addi	r3,r2,-1
 40007c8:	01000104 	movi	r4,4
 40007cc:	20c0142e 	bgeu	r4,r3,4000820 <printError+0x64>
	else if (status == 6) { printf("Invalid X scale factor\n"); }
 40007d0:	00c00184 	movi	r3,6
 40007d4:	10c01826 	beq	r2,r3,4000838 <printError+0x7c>
	else if (status == 7) { printf("Invalid Y scale factor\n"); }
 40007d8:	00c001c4 	movi	r3,7
 40007dc:	10c01926 	beq	r2,r3,4000844 <printError+0x88>
	else if (status == 8) { printf("Invalid picture start point\n"); }
 40007e0:	00c00204 	movi	r3,8
 40007e4:	10c01a26 	beq	r2,r3,4000850 <printError+0x94>
	else if (status == 9) { printf("Invalid picture end point\n"); }
 40007e8:	00c00244 	movi	r3,9
 40007ec:	10c01b26 	beq	r2,r3,400085c <printError+0xa0>
	else if (status == 10 || status == 11) { printf("Failed to allocate output buffers\n"); }
 40007f0:	10fffd84 	addi	r3,r2,-10
 40007f4:	01000044 	movi	r4,1
 40007f8:	20c01b2e 	bgeu	r4,r3,4000868 <printError+0xac>
	else if (status >= 12 && status <= 15) { printf("Failed to save image\n"); }
 40007fc:	10bffd04 	addi	r2,r2,-12
 4000800:	00c000c4 	movi	r3,3
 4000804:	1880092e 	bgeu	r3,r2,400082c <printError+0x70>
	else { printf("Unknown error\n"); }
 4000808:	01010074 	movhi	r4,1025
 400080c:	211f6304 	addi	r4,r4,32140
 4000810:	4003f341 	jmpi	4003f34 <puts>
}

void printError(Command* cmd)
{
	int status = cmd->status;
	if (status == 0) { printf("No error\n"); }
 4000814:	01010074 	movhi	r4,1025
 4000818:	211f4c04 	addi	r4,r4,32048
 400081c:	4003f341 	jmpi	4003f34 <puts>
	else if (status >= 1 && status <= 5) { printf("Failed to load image\n"); }
 4000820:	01010074 	movhi	r4,1025
 4000824:	211fc204 	addi	r4,r4,32520
 4000828:	4003f341 	jmpi	4003f34 <puts>
	else if (status == 6) { printf("Invalid X scale factor\n"); }
	else if (status == 7) { printf("Invalid Y scale factor\n"); }
	else if (status == 8) { printf("Invalid picture start point\n"); }
	else if (status == 9) { printf("Invalid picture end point\n"); }
	else if (status == 10 || status == 11) { printf("Failed to allocate output buffers\n"); }
	else if (status >= 12 && status <= 15) { printf("Failed to save image\n"); }
 400082c:	01010074 	movhi	r4,1025
 4000830:	211feb04 	addi	r4,r4,32684
 4000834:	4003f341 	jmpi	4003f34 <puts>
void printError(Command* cmd)
{
	int status = cmd->status;
	if (status == 0) { printf("No error\n"); }
	else if (status >= 1 && status <= 5) { printf("Failed to load image\n"); }
	else if (status == 6) { printf("Invalid X scale factor\n"); }
 4000838:	01010074 	movhi	r4,1025
 400083c:	211fc804 	addi	r4,r4,32544
 4000840:	4003f341 	jmpi	4003f34 <puts>
	else if (status == 7) { printf("Invalid Y scale factor\n"); }
 4000844:	01010074 	movhi	r4,1025
 4000848:	211fce04 	addi	r4,r4,32568
 400084c:	4003f341 	jmpi	4003f34 <puts>
	else if (status == 8) { printf("Invalid picture start point\n"); }
 4000850:	01010074 	movhi	r4,1025
 4000854:	211fd404 	addi	r4,r4,32592
 4000858:	4003f341 	jmpi	4003f34 <puts>
	else if (status == 9) { printf("Invalid picture end point\n"); }
 400085c:	01010074 	movhi	r4,1025
 4000860:	211fdb04 	addi	r4,r4,32620
 4000864:	4003f341 	jmpi	4003f34 <puts>
	else if (status == 10 || status == 11) { printf("Failed to allocate output buffers\n"); }
 4000868:	01010074 	movhi	r4,1025
 400086c:	211fe204 	addi	r4,r4,32648
 4000870:	4003f341 	jmpi	4003f34 <puts>

04000874 <cleanup>:
	else if (status >= 12 && status <= 15) { printf("Failed to save image\n"); }
	else { printf("Unknown error\n"); }
}

void cleanup(Command* cmd)
{
 4000874:	defffe04 	addi	sp,sp,-8
 4000878:	dc000015 	stw	r16,0(sp)
 400087c:	2021883a 	mov	r16,r4
	if (cmd->sourceImage != NULL) { free(cmd->sourceImage); cmd->sourceImage = NULL; }
 4000880:	21004f17 	ldw	r4,316(r4)
	else if (status >= 12 && status <= 15) { printf("Failed to save image\n"); }
	else { printf("Unknown error\n"); }
}

void cleanup(Command* cmd)
{
 4000884:	dfc00115 	stw	ra,4(sp)
	if (cmd->sourceImage != NULL) { free(cmd->sourceImage); cmd->sourceImage = NULL; }
 4000888:	20000226 	beq	r4,zero,4000894 <cleanup+0x20>
 400088c:	40033840 	call	4003384 <free>
 4000890:	80004f15 	stw	zero,316(r16)
	if (cmd->referenceImage != NULL) { free(cmd->referenceImage); cmd->referenceImage = NULL; }
 4000894:	81005017 	ldw	r4,320(r16)
 4000898:	20000226 	beq	r4,zero,40008a4 <cleanup+0x30>
 400089c:	40033840 	call	4003384 <free>
 40008a0:	80005015 	stw	zero,320(r16)
	if (cmd->destinationImage != NULL) { free(cmd->destinationImage); cmd->destinationImage = NULL; }
 40008a4:	81005117 	ldw	r4,324(r16)
 40008a8:	20000226 	beq	r4,zero,40008b4 <cleanup+0x40>
 40008ac:	40033840 	call	4003384 <free>
 40008b0:	80005115 	stw	zero,324(r16)
}
 40008b4:	dfc00117 	ldw	ra,4(sp)
 40008b8:	dc000017 	ldw	r16,0(sp)
 40008bc:	dec00204 	addi	sp,sp,8
 40008c0:	f800283a 	ret

040008c4 <checkCommand>:

int checkCommand(Command* cmd)
{
	if (cmd->status != 0)
 40008c4:	20800007 	ldb	r2,0(r4)
 40008c8:	1000021e 	bne	r2,zero,40008d4 <checkCommand+0x10>
	{
		printError(cmd);
		cleanup(cmd);
		return 1;
	}
	return 0;
 40008cc:	0005883a 	mov	r2,zero
}
 40008d0:	f800283a 	ret
	if (cmd->referenceImage != NULL) { free(cmd->referenceImage); cmd->referenceImage = NULL; }
	if (cmd->destinationImage != NULL) { free(cmd->destinationImage); cmd->destinationImage = NULL; }
}

int checkCommand(Command* cmd)
{
 40008d4:	defffe04 	addi	sp,sp,-8
 40008d8:	dc000015 	stw	r16,0(sp)
 40008dc:	dfc00115 	stw	ra,4(sp)
 40008e0:	2021883a 	mov	r16,r4

void printError(Command* cmd)
{
	int status = cmd->status;
	if (status == 0) { printf("No error\n"); }
	else if (status >= 1 && status <= 5) { printf("Failed to load image\n"); }
 40008e4:	10ffffc4 	addi	r3,r2,-1
 40008e8:	01000104 	movi	r4,4
 40008ec:	20c0242e 	bgeu	r4,r3,4000980 <checkCommand+0xbc>
	else if (status == 6) { printf("Invalid X scale factor\n"); }
 40008f0:	00c00184 	movi	r3,6
 40008f4:	10c02e26 	beq	r2,r3,40009b0 <checkCommand+0xec>
	else if (status == 7) { printf("Invalid Y scale factor\n"); }
 40008f8:	00c001c4 	movi	r3,7
 40008fc:	10c03026 	beq	r2,r3,40009c0 <checkCommand+0xfc>
	else if (status == 8) { printf("Invalid picture start point\n"); }
 4000900:	00c00204 	movi	r3,8
 4000904:	10c02626 	beq	r2,r3,40009a0 <checkCommand+0xdc>
	else if (status == 9) { printf("Invalid picture end point\n"); }
 4000908:	00c00244 	movi	r3,9
 400090c:	10c03026 	beq	r2,r3,40009d0 <checkCommand+0x10c>
	else if (status == 10 || status == 11) { printf("Failed to allocate output buffers\n"); }
 4000910:	10fffd84 	addi	r3,r2,-10
 4000914:	01000044 	movi	r4,1
 4000918:	20c0312e 	bgeu	r4,r3,40009e0 <checkCommand+0x11c>
	else if (status >= 12 && status <= 15) { printf("Failed to save image\n"); }
 400091c:	10bffd04 	addi	r2,r2,-12
 4000920:	00c000c4 	movi	r3,3
 4000924:	18801a2e 	bgeu	r3,r2,4000990 <checkCommand+0xcc>
	else { printf("Unknown error\n"); }
 4000928:	01010074 	movhi	r4,1025
 400092c:	211f6304 	addi	r4,r4,32140
 4000930:	4003f340 	call	4003f34 <puts>
}

void cleanup(Command* cmd)
{
	if (cmd->sourceImage != NULL) { free(cmd->sourceImage); cmd->sourceImage = NULL; }
 4000934:	81004f17 	ldw	r4,316(r16)
 4000938:	20000226 	beq	r4,zero,4000944 <checkCommand+0x80>
 400093c:	40033840 	call	4003384 <free>
 4000940:	80004f15 	stw	zero,316(r16)
	if (cmd->referenceImage != NULL) { free(cmd->referenceImage); cmd->referenceImage = NULL; }
 4000944:	81005017 	ldw	r4,320(r16)
 4000948:	20000226 	beq	r4,zero,4000954 <checkCommand+0x90>
 400094c:	40033840 	call	4003384 <free>
 4000950:	80005015 	stw	zero,320(r16)
	if (cmd->destinationImage != NULL) { free(cmd->destinationImage); cmd->destinationImage = NULL; }
 4000954:	81005117 	ldw	r4,324(r16)
 4000958:	20000726 	beq	r4,zero,4000978 <checkCommand+0xb4>
 400095c:	40033840 	call	4003384 <free>
 4000960:	00800044 	movi	r2,1
 4000964:	80005115 	stw	zero,324(r16)
		printError(cmd);
		cleanup(cmd);
		return 1;
	}
	return 0;
}
 4000968:	dfc00117 	ldw	ra,4(sp)
 400096c:	dc000017 	ldw	r16,0(sp)
 4000970:	dec00204 	addi	sp,sp,8
 4000974:	f800283a 	ret

void cleanup(Command* cmd)
{
	if (cmd->sourceImage != NULL) { free(cmd->sourceImage); cmd->sourceImage = NULL; }
	if (cmd->referenceImage != NULL) { free(cmd->referenceImage); cmd->referenceImage = NULL; }
	if (cmd->destinationImage != NULL) { free(cmd->destinationImage); cmd->destinationImage = NULL; }
 4000978:	00800044 	movi	r2,1
 400097c:	003ffa06 	br	4000968 <__alt_data_end+0xfc000968>

void printError(Command* cmd)
{
	int status = cmd->status;
	if (status == 0) { printf("No error\n"); }
	else if (status >= 1 && status <= 5) { printf("Failed to load image\n"); }
 4000980:	01010074 	movhi	r4,1025
 4000984:	211fc204 	addi	r4,r4,32520
 4000988:	4003f340 	call	4003f34 <puts>
 400098c:	003fe906 	br	4000934 <__alt_data_end+0xfc000934>
	else if (status == 6) { printf("Invalid X scale factor\n"); }
	else if (status == 7) { printf("Invalid Y scale factor\n"); }
	else if (status == 8) { printf("Invalid picture start point\n"); }
	else if (status == 9) { printf("Invalid picture end point\n"); }
	else if (status == 10 || status == 11) { printf("Failed to allocate output buffers\n"); }
	else if (status >= 12 && status <= 15) { printf("Failed to save image\n"); }
 4000990:	01010074 	movhi	r4,1025
 4000994:	211feb04 	addi	r4,r4,32684
 4000998:	4003f340 	call	4003f34 <puts>
 400099c:	003fe506 	br	4000934 <__alt_data_end+0xfc000934>
	int status = cmd->status;
	if (status == 0) { printf("No error\n"); }
	else if (status >= 1 && status <= 5) { printf("Failed to load image\n"); }
	else if (status == 6) { printf("Invalid X scale factor\n"); }
	else if (status == 7) { printf("Invalid Y scale factor\n"); }
	else if (status == 8) { printf("Invalid picture start point\n"); }
 40009a0:	01010074 	movhi	r4,1025
 40009a4:	211fd404 	addi	r4,r4,32592
 40009a8:	4003f340 	call	4003f34 <puts>
 40009ac:	003fe106 	br	4000934 <__alt_data_end+0xfc000934>
void printError(Command* cmd)
{
	int status = cmd->status;
	if (status == 0) { printf("No error\n"); }
	else if (status >= 1 && status <= 5) { printf("Failed to load image\n"); }
	else if (status == 6) { printf("Invalid X scale factor\n"); }
 40009b0:	01010074 	movhi	r4,1025
 40009b4:	211fc804 	addi	r4,r4,32544
 40009b8:	4003f340 	call	4003f34 <puts>
 40009bc:	003fdd06 	br	4000934 <__alt_data_end+0xfc000934>
	else if (status == 7) { printf("Invalid Y scale factor\n"); }
 40009c0:	01010074 	movhi	r4,1025
 40009c4:	211fce04 	addi	r4,r4,32568
 40009c8:	4003f340 	call	4003f34 <puts>
 40009cc:	003fd906 	br	4000934 <__alt_data_end+0xfc000934>
	else if (status == 8) { printf("Invalid picture start point\n"); }
	else if (status == 9) { printf("Invalid picture end point\n"); }
 40009d0:	01010074 	movhi	r4,1025
 40009d4:	211fdb04 	addi	r4,r4,32620
 40009d8:	4003f340 	call	4003f34 <puts>
 40009dc:	003fd506 	br	4000934 <__alt_data_end+0xfc000934>
	else if (status == 10 || status == 11) { printf("Failed to allocate output buffers\n"); }
 40009e0:	01010074 	movhi	r4,1025
 40009e4:	211fe204 	addi	r4,r4,32648
 40009e8:	4003f340 	call	4003f34 <puts>
 40009ec:	003fd106 	br	4000934 <__alt_data_end+0xfc000934>

040009f0 <parseCommand>:
	}
	return 0;
}

Command parseCommand()
{
 40009f0:	deffaa04 	addi	sp,sp,-344
 40009f4:	dc405415 	stw	r17,336(sp)
 40009f8:	2023883a 	mov	r17,r4
	cmd.destinationHeight = -1;
	cmd.sourceImage = NULL;
	cmd.referenceImage = NULL;
	cmd.destinationImage = NULL;

	scanf("%s", cmd.fname);
 40009fc:	01010074 	movhi	r4,1025

	cmd.status = 0;
	cmd.benchmark = 0;
	cmd.xScale = 0;
	cmd.yScale = 0;
	cmd.x = -1;
 4000a00:	00bfffc4 	movi	r2,-1
	cmd.destinationHeight = -1;
	cmd.sourceImage = NULL;
	cmd.referenceImage = NULL;
	cmd.destinationImage = NULL;

	scanf("%s", cmd.fname);
 4000a04:	211ff104 	addi	r4,r4,32708
 4000a08:	d9400144 	addi	r5,sp,5
	}
	return 0;
}

Command parseCommand()
{
 4000a0c:	dc005315 	stw	r16,332(sp)
 4000a10:	dfc05515 	stw	ra,340(sp)
	char next;
	Command cmd;

	cmd.status = 0;
 4000a14:	d8000105 	stb	zero,4(sp)
	cmd.benchmark = 0;
 4000a18:	d8004145 	stb	zero,261(sp)
	cmd.xScale = 0;
 4000a1c:	d8004215 	stw	zero,264(sp)
	cmd.yScale = 0;
 4000a20:	d8004315 	stw	zero,268(sp)
	cmd.x = -1;
 4000a24:	d8804415 	stw	r2,272(sp)
	cmd.y = -1;
 4000a28:	d8804515 	stw	r2,276(sp)
	cmd.ex = -1;
 4000a2c:	d8804615 	stw	r2,280(sp)
	cmd.ey = -1;
 4000a30:	d8804715 	stw	r2,284(sp)
	cmd.w = -1;
 4000a34:	d8804815 	stw	r2,288(sp)
	cmd.h = -1;
 4000a38:	d8804915 	stw	r2,292(sp)
	cmd.sourceWidth = -1;
 4000a3c:	d8804a15 	stw	r2,296(sp)
	cmd.sourceHeight = -1;
 4000a40:	d8804b15 	stw	r2,300(sp)
	cmd.destinationWidth = -1;
 4000a44:	d8804c15 	stw	r2,304(sp)
	cmd.destinationHeight = -1;
 4000a48:	d8804d15 	stw	r2,308(sp)
	cmd.sourceImage = NULL;
 4000a4c:	d8005015 	stw	zero,320(sp)
	cmd.referenceImage = NULL;
 4000a50:	d8005115 	stw	zero,324(sp)
	cmd.destinationImage = NULL;
 4000a54:	d8005215 	stw	zero,328(sp)

	scanf("%s", cmd.fname);

	for (next = ' '; next == ' '; next = getchar()) {}
 4000a58:	04000804 	movi	r16,32
	cmd.destinationHeight = -1;
	cmd.sourceImage = NULL;
	cmd.referenceImage = NULL;
	cmd.destinationImage = NULL;

	scanf("%s", cmd.fname);
 4000a5c:	40042140 	call	4004214 <scanf>

	for (next = ' '; next == ' '; next = getchar()) {}
 4000a60:	d0a00117 	ldw	r2,-32764(gp)
 4000a64:	11000117 	ldw	r4,4(r2)
 4000a68:	400312c0 	call	400312c <getc>
 4000a6c:	10803fcc 	andi	r2,r2,255
 4000a70:	1080201c 	xori	r2,r2,128
 4000a74:	10bfe004 	addi	r2,r2,-128
 4000a78:	143ff926 	beq	r2,r16,4000a60 <__alt_data_end+0xfc000a60>

	if (next == 'B') { cmd.benchmark = 1; return cmd; }
 4000a7c:	00c01084 	movi	r3,66
 4000a80:	10c03326 	beq	r2,r3,4000b50 <parseCommand+0x160>
	else if (next == 'R') { scanf("%d %d %d %d", &cmd.x, &cmd.y, &cmd.w,  &cmd.h); }
 4000a84:	00c01484 	movi	r3,82
 4000a88:	10c02826 	beq	r2,r3,4000b2c <parseCommand+0x13c>
	else { ungetc(next, stdin); }
 4000a8c:	1009883a 	mov	r4,r2
 4000a90:	d0a00117 	ldw	r2,-32764(gp)
 4000a94:	11400117 	ldw	r5,4(r2)
 4000a98:	40047d40 	call	40047d4 <ungetc>

	scanf("%d", &cmd.xScale);
 4000a9c:	01010074 	movhi	r4,1025
 4000aa0:	211ff504 	addi	r4,r4,32724
 4000aa4:	d9404204 	addi	r5,sp,264
 4000aa8:	40042140 	call	4004214 <scanf>
	cmd.yScale = cmd.xScale;
 4000aac:	d8804217 	ldw	r2,264(sp)

	for (next = ' '; next == ' '; next = getchar()) {}
 4000ab0:	04000804 	movi	r16,32
	if (next == 'B') { cmd.benchmark = 1; return cmd; }
	else if (next == 'R') { scanf("%d %d %d %d", &cmd.x, &cmd.y, &cmd.w,  &cmd.h); }
	else { ungetc(next, stdin); }

	scanf("%d", &cmd.xScale);
	cmd.yScale = cmd.xScale;
 4000ab4:	d8804315 	stw	r2,268(sp)

	for (next = ' '; next == ' '; next = getchar()) {}
 4000ab8:	d0a00117 	ldw	r2,-32764(gp)
 4000abc:	11000117 	ldw	r4,4(r2)
 4000ac0:	400312c0 	call	400312c <getc>
 4000ac4:	10803fcc 	andi	r2,r2,255
 4000ac8:	1080201c 	xori	r2,r2,128
 4000acc:	10bfe004 	addi	r2,r2,-128
 4000ad0:	143ff926 	beq	r2,r16,4000ab8 <__alt_data_end+0xfc000ab8>

	if (next == '\n' || next == '\r') { return cmd; }
 4000ad4:	00c00284 	movi	r3,10
 4000ad8:	10c00a26 	beq	r2,r3,4000b04 <parseCommand+0x114>
 4000adc:	00c00344 	movi	r3,13
 4000ae0:	10c00826 	beq	r2,r3,4000b04 <parseCommand+0x114>
	else { ungetc(next, stdin); }
 4000ae4:	1009883a 	mov	r4,r2
 4000ae8:	d0a00117 	ldw	r2,-32764(gp)
 4000aec:	11400117 	ldw	r5,4(r2)
 4000af0:	40047d40 	call	40047d4 <ungetc>

	scanf("%d", &cmd.yScale);
 4000af4:	01010074 	movhi	r4,1025
 4000af8:	211ff504 	addi	r4,r4,32724
 4000afc:	d9404304 	addi	r5,sp,268
 4000b00:	40042140 	call	4004214 <scanf>

	return cmd;
 4000b04:	01805204 	movi	r6,328
 4000b08:	d9400104 	addi	r5,sp,4
 4000b0c:	8809883a 	mov	r4,r17
 4000b10:	4003ba40 	call	4003ba4 <memcpy>
}
 4000b14:	8805883a 	mov	r2,r17
 4000b18:	dfc05517 	ldw	ra,340(sp)
 4000b1c:	dc405417 	ldw	r17,336(sp)
 4000b20:	dc005317 	ldw	r16,332(sp)
 4000b24:	dec05604 	addi	sp,sp,344
 4000b28:	f800283a 	ret
	scanf("%s", cmd.fname);

	for (next = ' '; next == ' '; next = getchar()) {}

	if (next == 'B') { cmd.benchmark = 1; return cmd; }
	else if (next == 'R') { scanf("%d %d %d %d", &cmd.x, &cmd.y, &cmd.w,  &cmd.h); }
 4000b2c:	d8804904 	addi	r2,sp,292
 4000b30:	01010074 	movhi	r4,1025
 4000b34:	211ff204 	addi	r4,r4,32712
 4000b38:	d8800015 	stw	r2,0(sp)
 4000b3c:	d9c04804 	addi	r7,sp,288
 4000b40:	d9804504 	addi	r6,sp,276
 4000b44:	d9404404 	addi	r5,sp,272
 4000b48:	40042140 	call	4004214 <scanf>
 4000b4c:	003fd306 	br	4000a9c <__alt_data_end+0xfc000a9c>

	scanf("%s", cmd.fname);

	for (next = ' '; next == ' '; next = getchar()) {}

	if (next == 'B') { cmd.benchmark = 1; return cmd; }
 4000b50:	01805204 	movi	r6,328
 4000b54:	d9400104 	addi	r5,sp,4
 4000b58:	8809883a 	mov	r4,r17
 4000b5c:	00800044 	movi	r2,1
 4000b60:	d8804145 	stb	r2,261(sp)
 4000b64:	4003ba40 	call	4003ba4 <memcpy>
 4000b68:	003fea06 	br	4000b14 <__alt_data_end+0xfc000b14>

04000b6c <loadImage>:
	return cmd;
}

void loadImage(Command* cmd)
{
	char ffname[MAX_PATH] = "/mnt/host/../../";
 4000b6c:	009d1bb4 	movhi	r2,29806

	return cmd;
}

void loadImage(Command* cmd)
{
 4000b70:	deffba04 	addi	sp,sp,-280
	char ffname[MAX_PATH] = "/mnt/host/../../";
 4000b74:	109b4bc4 	addi	r2,r2,27951
 4000b78:	d8800015 	stw	r2,0(sp)
 4000b7c:	009cdbf4 	movhi	r2,29551
 4000b80:	109a0bc4 	addi	r2,r2,26671
 4000b84:	d8800115 	stw	r2,4(sp)
 4000b88:	008b8bb4 	movhi	r2,11822
 4000b8c:	108bdd04 	addi	r2,r2,12148
 4000b90:	d8800215 	stw	r2,8(sp)
 4000b94:	008bcbb4 	movhi	r2,12078

	return cmd;
}

void loadImage(Command* cmd)
{
 4000b98:	dc004015 	stw	r16,256(sp)
	char ffname[MAX_PATH] = "/mnt/host/../../";
 4000b9c:	01803b04 	movi	r6,236

	return cmd;
}

void loadImage(Command* cmd)
{
 4000ba0:	2021883a 	mov	r16,r4
	char ffname[MAX_PATH] = "/mnt/host/../../";
 4000ba4:	000b883a 	mov	r5,zero
 4000ba8:	d9000504 	addi	r4,sp,20
 4000bac:	108b8bc4 	addi	r2,r2,11823

	return cmd;
}

void loadImage(Command* cmd)
{
 4000bb0:	dfc04515 	stw	ra,276(sp)
 4000bb4:	dd004415 	stw	r20,272(sp)
 4000bb8:	dcc04315 	stw	r19,268(sp)
 4000bbc:	dc804215 	stw	r18,264(sp)
 4000bc0:	dc404115 	stw	r17,260(sp)
	char ffname[MAX_PATH] = "/mnt/host/../../";
 4000bc4:	d8800315 	stw	r2,12(sp)
 4000bc8:	d8000415 	stw	zero,16(sp)
 4000bcc:	4003cec0 	call	4003cec <memset>
	strcat(ffname, cmd->fname);
 4000bd0:	81400044 	addi	r5,r16,1
 4000bd4:	d9000404 	addi	r4,sp,16
 4000bd8:	40044440 	call	4004444 <strcpy>
	FILE* f = fopen(ffname, "rb");
 4000bdc:	01410074 	movhi	r5,1025
 4000be0:	295ff604 	addi	r5,r5,32728
 4000be4:	d809883a 	mov	r4,sp
 4000be8:	400228c0 	call	400228c <fopen>
	if (f == NULL) { cmd->status = 1; return; }
 4000bec:	10001626 	beq	r2,zero,4000c48 <loadImage+0xdc>

	size_t read = fread(&cmd->sourceWidth, sizeof(int), 1, f);
 4000bf0:	04800044 	movi	r18,1
 4000bf4:	05000104 	movi	r20,4
 4000bf8:	100f883a 	mov	r7,r2
 4000bfc:	900d883a 	mov	r6,r18
 4000c00:	a00b883a 	mov	r5,r20
 4000c04:	81004904 	addi	r4,r16,292
 4000c08:	1023883a 	mov	r17,r2
 4000c0c:	40024e00 	call	40024e0 <fread>
 4000c10:	1027883a 	mov	r19,r2
	if (read != 1) { fclose(f); cmd->status = 2; return; }
 4000c14:	14800f26 	beq	r2,r18,4000c54 <loadImage+0xe8>
 4000c18:	8809883a 	mov	r4,r17
 4000c1c:	4001b2c0 	call	4001b2c <fclose>
 4000c20:	00800084 	movi	r2,2
 4000c24:	80800005 	stb	r2,0(r16)

	read = fread(cmd->sourceImage, sizeof(unsigned char), cmd->sourceSize, f);
	if (read != cmd->sourceSize) { fclose(f); cmd->status = 5; return; }

	fclose(f);
}
 4000c28:	dfc04517 	ldw	ra,276(sp)
 4000c2c:	dd004417 	ldw	r20,272(sp)
 4000c30:	dcc04317 	ldw	r19,268(sp)
 4000c34:	dc804217 	ldw	r18,264(sp)
 4000c38:	dc404117 	ldw	r17,260(sp)
 4000c3c:	dc004017 	ldw	r16,256(sp)
 4000c40:	dec04604 	addi	sp,sp,280
 4000c44:	f800283a 	ret
void loadImage(Command* cmd)
{
	char ffname[MAX_PATH] = "/mnt/host/../../";
	strcat(ffname, cmd->fname);
	FILE* f = fopen(ffname, "rb");
	if (f == NULL) { cmd->status = 1; return; }
 4000c48:	00800044 	movi	r2,1
 4000c4c:	80800005 	stb	r2,0(r16)
 4000c50:	003ff506 	br	4000c28 <__alt_data_end+0xfc000c28>

	size_t read = fread(&cmd->sourceWidth, sizeof(int), 1, f);
	if (read != 1) { fclose(f); cmd->status = 2; return; }

	read = fread(&cmd->sourceHeight, sizeof(int), 1, f);
 4000c54:	880f883a 	mov	r7,r17
 4000c58:	100d883a 	mov	r6,r2
 4000c5c:	a00b883a 	mov	r5,r20
 4000c60:	81004a04 	addi	r4,r16,296
 4000c64:	40024e00 	call	40024e0 <fread>
 4000c68:	1025883a 	mov	r18,r2
	if (read != 1) { fclose(f); cmd->status = 3; return; }
 4000c6c:	14c00526 	beq	r2,r19,4000c84 <loadImage+0x118>
 4000c70:	8809883a 	mov	r4,r17
 4000c74:	4001b2c0 	call	4001b2c <fclose>
 4000c78:	008000c4 	movi	r2,3
 4000c7c:	80800005 	stb	r2,0(r16)
 4000c80:	003fe906 	br	4000c28 <__alt_data_end+0xfc000c28>

	cmd->sourceSize = cmd->sourceWidth * cmd->sourceHeight;
 4000c84:	81004917 	ldw	r4,292(r16)
 4000c88:	81404a17 	ldw	r5,296(r16)
 4000c8c:	4001a140 	call	4001a14 <__mulsi3>
 4000c90:	80804d15 	stw	r2,308(r16)
	cmd->sourceImage = malloc(sizeof(unsigned char) * cmd->sourceSize);
 4000c94:	1009883a 	mov	r4,r2
	if (read != 1) { fclose(f); cmd->status = 2; return; }

	read = fread(&cmd->sourceHeight, sizeof(int), 1, f);
	if (read != 1) { fclose(f); cmd->status = 3; return; }

	cmd->sourceSize = cmd->sourceWidth * cmd->sourceHeight;
 4000c98:	1027883a 	mov	r19,r2
	cmd->sourceImage = malloc(sizeof(unsigned char) * cmd->sourceSize);
 4000c9c:	40033700 	call	4003370 <malloc>
 4000ca0:	80804f15 	stw	r2,316(r16)
	if (cmd->sourceImage == NULL) { fclose(f); cmd->status = 4; return; }
 4000ca4:	10000c26 	beq	r2,zero,4000cd8 <loadImage+0x16c>

	read = fread(cmd->sourceImage, sizeof(unsigned char), cmd->sourceSize, f);
 4000ca8:	1009883a 	mov	r4,r2
 4000cac:	880f883a 	mov	r7,r17
 4000cb0:	980d883a 	mov	r6,r19
 4000cb4:	900b883a 	mov	r5,r18
 4000cb8:	40024e00 	call	40024e0 <fread>
	if (read != cmd->sourceSize) { fclose(f); cmd->status = 5; return; }
 4000cbc:	80c04d17 	ldw	r3,308(r16)
 4000cc0:	8809883a 	mov	r4,r17
 4000cc4:	10c00826 	beq	r2,r3,4000ce8 <loadImage+0x17c>
 4000cc8:	4001b2c0 	call	4001b2c <fclose>
 4000ccc:	00800144 	movi	r2,5
 4000cd0:	80800005 	stb	r2,0(r16)
 4000cd4:	003fd406 	br	4000c28 <__alt_data_end+0xfc000c28>
	read = fread(&cmd->sourceHeight, sizeof(int), 1, f);
	if (read != 1) { fclose(f); cmd->status = 3; return; }

	cmd->sourceSize = cmd->sourceWidth * cmd->sourceHeight;
	cmd->sourceImage = malloc(sizeof(unsigned char) * cmd->sourceSize);
	if (cmd->sourceImage == NULL) { fclose(f); cmd->status = 4; return; }
 4000cd8:	8809883a 	mov	r4,r17
 4000cdc:	4001b2c0 	call	4001b2c <fclose>
 4000ce0:	85000005 	stb	r20,0(r16)
 4000ce4:	003fd006 	br	4000c28 <__alt_data_end+0xfc000c28>

	read = fread(cmd->sourceImage, sizeof(unsigned char), cmd->sourceSize, f);
	if (read != cmd->sourceSize) { fclose(f); cmd->status = 5; return; }

	fclose(f);
 4000ce8:	4001b2c0 	call	4001b2c <fclose>
 4000cec:	003fce06 	br	4000c28 <__alt_data_end+0xfc000c28>

04000cf0 <prepareCommand>:
}

void prepareCommand(Command* cmd)
{
 4000cf0:	defffb04 	addi	sp,sp,-20
 4000cf4:	dc000015 	stw	r16,0(sp)
 4000cf8:	21404117 	ldw	r5,260(r4)
 4000cfc:	24004217 	ldw	r16,264(r4)
 4000d00:	dfc00415 	stw	ra,16(sp)
 4000d04:	dcc00315 	stw	r19,12(sp)
 4000d08:	dc800215 	stw	r18,8(sp)
 4000d0c:	dc400115 	stw	r17,4(sp)
 4000d10:	01bfff44 	movi	r6,-3
 4000d14:	80bfff20 	cmpeqi	r2,r16,-4
 4000d18:	29807c26 	beq	r5,r6,4000f0c <prepareCommand+0x21c>
 4000d1c:	28ffff20 	cmpeqi	r3,r5,-4
 4000d20:	01bfff44 	movi	r6,-3
 4000d24:	81807726 	beq	r16,r6,4000f04 <prepareCommand+0x214>
 4000d28:	01bfff84 	movi	r6,-2
 4000d2c:	29807326 	beq	r5,r6,4000efc <prepareCommand+0x20c>
 4000d30:	01bfff84 	movi	r6,-2
 4000d34:	81806f26 	beq	r16,r6,4000ef4 <prepareCommand+0x204>
 4000d38:	01bfffc4 	movi	r6,-1
 4000d3c:	29806b26 	beq	r5,r6,4000eec <prepareCommand+0x1fc>
 4000d40:	01bfffc4 	movi	r6,-1
 4000d44:	81806726 	beq	r16,r6,4000ee4 <prepareCommand+0x1f4>
 4000d48:	01800044 	movi	r6,1
 4000d4c:	29806326 	beq	r5,r6,4000edc <prepareCommand+0x1ec>
 4000d50:	01800044 	movi	r6,1
 4000d54:	81805f26 	beq	r16,r6,4000ed4 <prepareCommand+0x1e4>
 4000d58:	01800084 	movi	r6,2
 4000d5c:	29805b26 	beq	r5,r6,4000ecc <prepareCommand+0x1dc>
 4000d60:	01800084 	movi	r6,2
 4000d64:	81805726 	beq	r16,r6,4000ec4 <prepareCommand+0x1d4>
 4000d68:	018000c4 	movi	r6,3
 4000d6c:	29805326 	beq	r5,r6,4000ebc <prepareCommand+0x1cc>
 4000d70:	018000c4 	movi	r6,3
 4000d74:	81804f26 	beq	r16,r6,4000eb4 <prepareCommand+0x1c4>
 4000d78:	01800104 	movi	r6,4
 4000d7c:	81804b26 	beq	r16,r6,4000eac <prepareCommand+0x1bc>
	for (int i = 0; i < 8; i++)
	{
		if (cmd->xScale == validScales[i]) { validX = 1; }
		if (cmd->yScale == validScales[i]) { validY = 1; }
	}
	if (validX == 0) { cmd->status = 6; return; }
 4000d80:	01800104 	movi	r6,4
 4000d84:	29800a26 	beq	r5,r6,4000db0 <prepareCommand+0xc0>
 4000d88:	1800091e 	bne	r3,zero,4000db0 <prepareCommand+0xc0>
 4000d8c:	00800184 	movi	r2,6
 4000d90:	20800005 	stb	r2,0(r4)
	cmd->referenceImage = malloc(sizeof(unsigned char) * cmd->destinationSize);
	cmd->destinationImage = malloc(sizeof(unsigned char) * cmd->destinationSize);

	if (cmd->referenceImage == NULL) { cmd->status = 10; return; }
	if (cmd->destinationImage == NULL) { cmd->status = 11; return; }
}
 4000d94:	dfc00417 	ldw	ra,16(sp)
 4000d98:	dcc00317 	ldw	r19,12(sp)
 4000d9c:	dc800217 	ldw	r18,8(sp)
 4000da0:	dc400117 	ldw	r17,4(sp)
 4000da4:	dc000017 	ldw	r16,0(sp)
 4000da8:	dec00504 	addi	sp,sp,20
 4000dac:	f800283a 	ret
	{
		if (cmd->xScale == validScales[i]) { validX = 1; }
		if (cmd->yScale == validScales[i]) { validY = 1; }
	}
	if (validX == 0) { cmd->status = 6; return; }
	if (validY == 0) { cmd->status = 7; return; }
 4000db0:	1000031e 	bne	r2,zero,4000dc0 <prepareCommand+0xd0>
 4000db4:	008001c4 	movi	r2,7
 4000db8:	20800005 	stb	r2,0(r4)
 4000dbc:	003ff506 	br	4000d94 <__alt_data_end+0xfc000d94>

	if (cmd->x == -1) { cmd->x = 0; }
 4000dc0:	20804317 	ldw	r2,268(r4)
 4000dc4:	00ffffc4 	movi	r3,-1
 4000dc8:	10c05b26 	beq	r2,r3,4000f38 <prepareCommand+0x248>
	if (cmd->y == -1) { cmd->y = 0; }
 4000dcc:	20c04417 	ldw	r3,272(r4)
 4000dd0:	01bfffc4 	movi	r6,-1
 4000dd4:	19805526 	beq	r3,r6,4000f2c <prepareCommand+0x23c>
	if (cmd->w == -1) { cmd->w = cmd->sourceWidth; }
 4000dd8:	21804717 	ldw	r6,284(r4)
 4000ddc:	01ffffc4 	movi	r7,-1
 4000de0:	31c04f26 	beq	r6,r7,4000f20 <prepareCommand+0x230>
	if (cmd->h == -1) { cmd->h = cmd->sourceHeight; }
 4000de4:	24404817 	ldw	r17,288(r4)
 4000de8:	01ffffc4 	movi	r7,-1
 4000dec:	89c04926 	beq	r17,r7,4000f14 <prepareCommand+0x224>

	cmd->ex = cmd->x + cmd->w;
 4000df0:	118f883a 	add	r7,r2,r6
	cmd->ey = cmd->y + cmd->h;
 4000df4:	88d1883a 	add	r8,r17,r3
	if (cmd->x == -1) { cmd->x = 0; }
	if (cmd->y == -1) { cmd->y = 0; }
	if (cmd->w == -1) { cmd->w = cmd->sourceWidth; }
	if (cmd->h == -1) { cmd->h = cmd->sourceHeight; }

	cmd->ex = cmd->x + cmd->w;
 4000df8:	21c04515 	stw	r7,276(r4)
	cmd->ey = cmd->y + cmd->h;
 4000dfc:	22004615 	stw	r8,280(r4)

	if (cmd->x < 0 || cmd->x >= cmd->sourceWidth || cmd->y < 0 || cmd->y >= cmd->sourceHeight) { cmd->status = 8; return; }
 4000e00:	10002716 	blt	r2,zero,4000ea0 <prepareCommand+0x1b0>
 4000e04:	22404917 	ldw	r9,292(r4)
 4000e08:	1240250e 	bge	r2,r9,4000ea0 <prepareCommand+0x1b0>
 4000e0c:	18002416 	blt	r3,zero,4000ea0 <prepareCommand+0x1b0>
 4000e10:	20804a17 	ldw	r2,296(r4)
 4000e14:	1880220e 	bge	r3,r2,4000ea0 <prepareCommand+0x1b0>
	if (cmd->ex <= 0 || cmd->ex > cmd->sourceWidth || cmd->ey <= 0 || cmd->ey > cmd->sourceHeight) { cmd->status = 9; return; }
 4000e18:	01c04a0e 	bge	zero,r7,4000f44 <prepareCommand+0x254>
 4000e1c:	49c04916 	blt	r9,r7,4000f44 <prepareCommand+0x254>
 4000e20:	0200480e 	bge	zero,r8,4000f44 <prepareCommand+0x254>
 4000e24:	12004716 	blt	r2,r8,4000f44 <prepareCommand+0x254>

	cmd->destinationWidth = cmd->w;
 4000e28:	21804b15 	stw	r6,300(r4)
	cmd->destinationHeight = cmd->h;
 4000e2c:	24404c15 	stw	r17,304(r4)
 4000e30:	2025883a 	mov	r18,r4

	if(cmd->xScale < 0) { cmd->destinationWidth /= -cmd->xScale; }
 4000e34:	28005416 	blt	r5,zero,4000f88 <prepareCommand+0x298>
	else { cmd->destinationWidth *= cmd->xScale; }
 4000e38:	3009883a 	mov	r4,r6
 4000e3c:	4001a140 	call	4001a14 <__mulsi3>
 4000e40:	1027883a 	mov	r19,r2
 4000e44:	94c04b15 	stw	r19,300(r18)
	if(cmd->yScale < 0) { cmd->destinationHeight /= -cmd->yScale; }
 4000e48:	80004416 	blt	r16,zero,4000f5c <prepareCommand+0x26c>
	else { cmd->destinationHeight *= cmd->yScale; }
 4000e4c:	880b883a 	mov	r5,r17
 4000e50:	8009883a 	mov	r4,r16
 4000e54:	4001a140 	call	4001a14 <__mulsi3>

	cmd->destinationSize = cmd->destinationWidth * cmd->destinationHeight;
 4000e58:	980b883a 	mov	r5,r19
 4000e5c:	1009883a 	mov	r4,r2
	cmd->destinationHeight = cmd->h;

	if(cmd->xScale < 0) { cmd->destinationWidth /= -cmd->xScale; }
	else { cmd->destinationWidth *= cmd->xScale; }
	if(cmd->yScale < 0) { cmd->destinationHeight /= -cmd->yScale; }
	else { cmd->destinationHeight *= cmd->yScale; }
 4000e60:	90804c15 	stw	r2,304(r18)

	cmd->destinationSize = cmd->destinationWidth * cmd->destinationHeight;
 4000e64:	4001a140 	call	4001a14 <__mulsi3>

	cmd->referenceImage = malloc(sizeof(unsigned char) * cmd->destinationSize);
 4000e68:	1009883a 	mov	r4,r2
	if(cmd->xScale < 0) { cmd->destinationWidth /= -cmd->xScale; }
	else { cmd->destinationWidth *= cmd->xScale; }
	if(cmd->yScale < 0) { cmd->destinationHeight /= -cmd->yScale; }
	else { cmd->destinationHeight *= cmd->yScale; }

	cmd->destinationSize = cmd->destinationWidth * cmd->destinationHeight;
 4000e6c:	90804e15 	stw	r2,312(r18)
 4000e70:	1021883a 	mov	r16,r2

	cmd->referenceImage = malloc(sizeof(unsigned char) * cmd->destinationSize);
 4000e74:	40033700 	call	4003370 <malloc>
 4000e78:	90805015 	stw	r2,320(r18)
	cmd->destinationImage = malloc(sizeof(unsigned char) * cmd->destinationSize);
 4000e7c:	8009883a 	mov	r4,r16
	if(cmd->yScale < 0) { cmd->destinationHeight /= -cmd->yScale; }
	else { cmd->destinationHeight *= cmd->yScale; }

	cmd->destinationSize = cmd->destinationWidth * cmd->destinationHeight;

	cmd->referenceImage = malloc(sizeof(unsigned char) * cmd->destinationSize);
 4000e80:	1023883a 	mov	r17,r2
	cmd->destinationImage = malloc(sizeof(unsigned char) * cmd->destinationSize);
 4000e84:	40033700 	call	4003370 <malloc>
 4000e88:	90805115 	stw	r2,324(r18)

	if (cmd->referenceImage == NULL) { cmd->status = 10; return; }
 4000e8c:	88003026 	beq	r17,zero,4000f50 <prepareCommand+0x260>
	if (cmd->destinationImage == NULL) { cmd->status = 11; return; }
 4000e90:	103fc01e 	bne	r2,zero,4000d94 <__alt_data_end+0xfc000d94>
 4000e94:	008002c4 	movi	r2,11
 4000e98:	90800005 	stb	r2,0(r18)
 4000e9c:	003fbd06 	br	4000d94 <__alt_data_end+0xfc000d94>
	if (cmd->h == -1) { cmd->h = cmd->sourceHeight; }

	cmd->ex = cmd->x + cmd->w;
	cmd->ey = cmd->y + cmd->h;

	if (cmd->x < 0 || cmd->x >= cmd->sourceWidth || cmd->y < 0 || cmd->y >= cmd->sourceHeight) { cmd->status = 8; return; }
 4000ea0:	00800204 	movi	r2,8
 4000ea4:	20800005 	stb	r2,0(r4)
 4000ea8:	003fba06 	br	4000d94 <__alt_data_end+0xfc000d94>
 4000eac:	00800044 	movi	r2,1
 4000eb0:	003fb306 	br	4000d80 <__alt_data_end+0xfc000d80>
 4000eb4:	00800044 	movi	r2,1
 4000eb8:	003faf06 	br	4000d78 <__alt_data_end+0xfc000d78>
 4000ebc:	00c00044 	movi	r3,1
 4000ec0:	003fab06 	br	4000d70 <__alt_data_end+0xfc000d70>
 4000ec4:	00800044 	movi	r2,1
 4000ec8:	003fa706 	br	4000d68 <__alt_data_end+0xfc000d68>
 4000ecc:	00c00044 	movi	r3,1
 4000ed0:	003fa306 	br	4000d60 <__alt_data_end+0xfc000d60>
 4000ed4:	8005883a 	mov	r2,r16
 4000ed8:	003f9f06 	br	4000d58 <__alt_data_end+0xfc000d58>
 4000edc:	2807883a 	mov	r3,r5
 4000ee0:	003f9b06 	br	4000d50 <__alt_data_end+0xfc000d50>
 4000ee4:	00800044 	movi	r2,1
 4000ee8:	003f9706 	br	4000d48 <__alt_data_end+0xfc000d48>
 4000eec:	00c00044 	movi	r3,1
 4000ef0:	003f9306 	br	4000d40 <__alt_data_end+0xfc000d40>
 4000ef4:	00800044 	movi	r2,1
 4000ef8:	003f8f06 	br	4000d38 <__alt_data_end+0xfc000d38>
 4000efc:	00c00044 	movi	r3,1
 4000f00:	003f8b06 	br	4000d30 <__alt_data_end+0xfc000d30>
 4000f04:	00800044 	movi	r2,1
 4000f08:	003f8706 	br	4000d28 <__alt_data_end+0xfc000d28>
 4000f0c:	00c00044 	movi	r3,1
 4000f10:	003f8306 	br	4000d20 <__alt_data_end+0xfc000d20>
	if (validY == 0) { cmd->status = 7; return; }

	if (cmd->x == -1) { cmd->x = 0; }
	if (cmd->y == -1) { cmd->y = 0; }
	if (cmd->w == -1) { cmd->w = cmd->sourceWidth; }
	if (cmd->h == -1) { cmd->h = cmd->sourceHeight; }
 4000f14:	24404a17 	ldw	r17,296(r4)
 4000f18:	24404815 	stw	r17,288(r4)
 4000f1c:	003fb406 	br	4000df0 <__alt_data_end+0xfc000df0>
	if (validX == 0) { cmd->status = 6; return; }
	if (validY == 0) { cmd->status = 7; return; }

	if (cmd->x == -1) { cmd->x = 0; }
	if (cmd->y == -1) { cmd->y = 0; }
	if (cmd->w == -1) { cmd->w = cmd->sourceWidth; }
 4000f20:	21804917 	ldw	r6,292(r4)
 4000f24:	21804715 	stw	r6,284(r4)
 4000f28:	003fae06 	br	4000de4 <__alt_data_end+0xfc000de4>
	}
	if (validX == 0) { cmd->status = 6; return; }
	if (validY == 0) { cmd->status = 7; return; }

	if (cmd->x == -1) { cmd->x = 0; }
	if (cmd->y == -1) { cmd->y = 0; }
 4000f2c:	20004415 	stw	zero,272(r4)
 4000f30:	0007883a 	mov	r3,zero
 4000f34:	003fa806 	br	4000dd8 <__alt_data_end+0xfc000dd8>
		if (cmd->yScale == validScales[i]) { validY = 1; }
	}
	if (validX == 0) { cmd->status = 6; return; }
	if (validY == 0) { cmd->status = 7; return; }

	if (cmd->x == -1) { cmd->x = 0; }
 4000f38:	20004315 	stw	zero,268(r4)
 4000f3c:	0005883a 	mov	r2,zero
 4000f40:	003fa206 	br	4000dcc <__alt_data_end+0xfc000dcc>

	cmd->ex = cmd->x + cmd->w;
	cmd->ey = cmd->y + cmd->h;

	if (cmd->x < 0 || cmd->x >= cmd->sourceWidth || cmd->y < 0 || cmd->y >= cmd->sourceHeight) { cmd->status = 8; return; }
	if (cmd->ex <= 0 || cmd->ex > cmd->sourceWidth || cmd->ey <= 0 || cmd->ey > cmd->sourceHeight) { cmd->status = 9; return; }
 4000f44:	00800244 	movi	r2,9
 4000f48:	20800005 	stb	r2,0(r4)
 4000f4c:	003f9106 	br	4000d94 <__alt_data_end+0xfc000d94>
	cmd->destinationSize = cmd->destinationWidth * cmd->destinationHeight;

	cmd->referenceImage = malloc(sizeof(unsigned char) * cmd->destinationSize);
	cmd->destinationImage = malloc(sizeof(unsigned char) * cmd->destinationSize);

	if (cmd->referenceImage == NULL) { cmd->status = 10; return; }
 4000f50:	00800284 	movi	r2,10
 4000f54:	90800005 	stb	r2,0(r18)
 4000f58:	003f8e06 	br	4000d94 <__alt_data_end+0xfc000d94>
	cmd->destinationWidth = cmd->w;
	cmd->destinationHeight = cmd->h;

	if(cmd->xScale < 0) { cmd->destinationWidth /= -cmd->xScale; }
	else { cmd->destinationWidth *= cmd->xScale; }
	if(cmd->yScale < 0) { cmd->destinationHeight /= -cmd->yScale; }
 4000f5c:	040bc83a 	sub	r5,zero,r16
 4000f60:	8944b03a 	or	r2,r17,r5
 4000f64:	00c003c4 	movi	r3,15
 4000f68:	18801236 	bltu	r3,r2,4000fb4 <prepareCommand+0x2c4>
 4000f6c:	8822913a 	slli	r17,r17,4
 4000f70:	008100b4 	movhi	r2,1026
 4000f74:	10a1cf04 	addi	r2,r2,-30916
 4000f78:	894ab03a 	or	r5,r17,r5
 4000f7c:	288b883a 	add	r5,r5,r2
 4000f80:	28800003 	ldbu	r2,0(r5)
 4000f84:	003fb406 	br	4000e58 <__alt_data_end+0xfc000e58>
	if (cmd->ex <= 0 || cmd->ex > cmd->sourceWidth || cmd->ey <= 0 || cmd->ey > cmd->sourceHeight) { cmd->status = 9; return; }

	cmd->destinationWidth = cmd->w;
	cmd->destinationHeight = cmd->h;

	if(cmd->xScale < 0) { cmd->destinationWidth /= -cmd->xScale; }
 4000f88:	014bc83a 	sub	r5,zero,r5
 4000f8c:	3144b03a 	or	r2,r6,r5
 4000f90:	00c003c4 	movi	r3,15
 4000f94:	18800a36 	bltu	r3,r2,4000fc0 <prepareCommand+0x2d0>
 4000f98:	300c913a 	slli	r6,r6,4
 4000f9c:	008100b4 	movhi	r2,1026
 4000fa0:	10a1cf04 	addi	r2,r2,-30916
 4000fa4:	314ab03a 	or	r5,r6,r5
 4000fa8:	288b883a 	add	r5,r5,r2
 4000fac:	2cc00003 	ldbu	r19,0(r5)
 4000fb0:	003fa406 	br	4000e44 <__alt_data_end+0xfc000e44>
	else { cmd->destinationWidth *= cmd->xScale; }
	if(cmd->yScale < 0) { cmd->destinationHeight /= -cmd->yScale; }
 4000fb4:	8809883a 	mov	r4,r17
 4000fb8:	40018600 	call	4001860 <__divsi3>
 4000fbc:	003fa606 	br	4000e58 <__alt_data_end+0xfc000e58>
	if (cmd->ex <= 0 || cmd->ex > cmd->sourceWidth || cmd->ey <= 0 || cmd->ey > cmd->sourceHeight) { cmd->status = 9; return; }

	cmd->destinationWidth = cmd->w;
	cmd->destinationHeight = cmd->h;

	if(cmd->xScale < 0) { cmd->destinationWidth /= -cmd->xScale; }
 4000fc0:	3009883a 	mov	r4,r6
 4000fc4:	40018600 	call	4001860 <__divsi3>
 4000fc8:	1027883a 	mov	r19,r2
 4000fcc:	003f9d06 	br	4000e44 <__alt_data_end+0xfc000e44>

04000fd0 <resizeImage>:
	if (cmd->referenceImage == NULL) { cmd->status = 10; return; }
	if (cmd->destinationImage == NULL) { cmd->status = 11; return; }
}

void resizeImage(Command* cmd)
{
 4000fd0:	defff704 	addi	sp,sp,-36
	PERF_RESET(PERF_CNT_BASE);
 4000fd4:	00820034 	movhi	r2,2048
	if (cmd->referenceImage == NULL) { cmd->status = 10; return; }
	if (cmd->destinationImage == NULL) { cmd->status = 11; return; }
}

void resizeImage(Command* cmd)
{
 4000fd8:	dc000615 	stw	r16,24(sp)
 4000fdc:	dfc00815 	stw	ra,32(sp)
 4000fe0:	dc400715 	stw	r17,28(sp)
 4000fe4:	2021883a 	mov	r16,r4
	PERF_RESET(PERF_CNT_BASE);
 4000fe8:	10840004 	addi	r2,r2,4096
 4000fec:	00c00044 	movi	r3,1
 4000ff0:	10c00035 	stwio	r3,0(r2)
	PERF_START_MEASURING(PERF_CNT_BASE);
 4000ff4:	00820034 	movhi	r2,2048
 4000ff8:	0023883a 	mov	r17,zero
 4000ffc:	10840104 	addi	r2,r2,4100
 4001000:	14400035 	stwio	r17,0(r2)

	alt_dcache_flush_all();
 4001004:	40144ac0 	call	40144ac <alt_dcache_flush_all>
	PERF_BEGIN(PERF_CNT_BASE, 1);
 4001008:	00820034 	movhi	r2,2048
 400100c:	10840504 	addi	r2,r2,4116
 4001010:	14400035 	stwio	r17,0(r2)
	scaleSW(cmd->sourceImage, cmd->referenceImage, cmd->sourceWidth, cmd->sourceHeight, cmd->x, cmd->y, cmd->w, cmd->h, cmd->xScale, cmd->yScale);
 4001014:	80804317 	ldw	r2,268(r16)
 4001018:	82c04217 	ldw	r11,264(r16)
 400101c:	82804117 	ldw	r10,260(r16)
 4001020:	82404817 	ldw	r9,288(r16)
 4001024:	82004717 	ldw	r8,284(r16)
 4001028:	80c04417 	ldw	r3,272(r16)
 400102c:	81c04a17 	ldw	r7,296(r16)
 4001030:	81804917 	ldw	r6,292(r16)
 4001034:	81405017 	ldw	r5,320(r16)
 4001038:	81004f17 	ldw	r4,316(r16)
 400103c:	d8800015 	stw	r2,0(sp)
 4001040:	dac00515 	stw	r11,20(sp)
 4001044:	da800415 	stw	r10,16(sp)
 4001048:	da400315 	stw	r9,12(sp)
 400104c:	da000215 	stw	r8,8(sp)
 4001050:	d8c00115 	stw	r3,4(sp)
 4001054:	40015140 	call	4001514 <scaleSW>
	PERF_END(PERF_CNT_BASE, 1);
 4001058:	00820034 	movhi	r2,2048
 400105c:	10840404 	addi	r2,r2,4112
 4001060:	14400035 	stwio	r17,0(r2)

	alt_dcache_flush_all();
 4001064:	40144ac0 	call	40144ac <alt_dcache_flush_all>
	PERF_BEGIN(PERF_CNT_BASE, 2);
 4001068:	00820034 	movhi	r2,2048
 400106c:	10840904 	addi	r2,r2,4132
 4001070:	14400035 	stwio	r17,0(r2)
	checkHWStatus(scaleHW(cmd->sourceImage, cmd->destinationImage, cmd->sourceWidth, cmd->sourceHeight, cmd->x, cmd->y, cmd->w, cmd->h, cmd->xScale, cmd->yScale));
 4001074:	82c04217 	ldw	r11,264(r16)
 4001078:	82804117 	ldw	r10,260(r16)
 400107c:	82404817 	ldw	r9,288(r16)
 4001080:	82004717 	ldw	r8,284(r16)
 4001084:	80c04417 	ldw	r3,272(r16)
 4001088:	80804317 	ldw	r2,268(r16)
 400108c:	81c04a17 	ldw	r7,296(r16)
 4001090:	81804917 	ldw	r6,292(r16)
 4001094:	81405117 	ldw	r5,324(r16)
 4001098:	81004f17 	ldw	r4,316(r16)
 400109c:	dac00515 	stw	r11,20(sp)
 40010a0:	da800415 	stw	r10,16(sp)
 40010a4:	da400315 	stw	r9,12(sp)
 40010a8:	da000215 	stw	r8,8(sp)
 40010ac:	d8c00115 	stw	r3,4(sp)
 40010b0:	d8800015 	stw	r2,0(sp)
 40010b4:	40004500 	call	4000450 <scaleHW>
 40010b8:	1009883a 	mov	r4,r2
 40010bc:	40002f40 	call	40002f4 <checkHWStatus>
	PERF_END(PERF_CNT_BASE, 3);
 40010c0:	00820034 	movhi	r2,2048
 40010c4:	10840c04 	addi	r2,r2,4144
 40010c8:	14400035 	stwio	r17,0(r2)
}
 40010cc:	dfc00817 	ldw	ra,32(sp)
 40010d0:	dc400717 	ldw	r17,28(sp)
 40010d4:	dc000617 	ldw	r16,24(sp)
 40010d8:	dec00904 	addi	sp,sp,36
 40010dc:	f800283a 	ret

040010e0 <saveImage>:

void saveImage(Command* cmd)
{
	char ffname[MAX_PATH] = "/mnt/host/../../";
 40010e0:	009d1bb4 	movhi	r2,29806
	checkHWStatus(scaleHW(cmd->sourceImage, cmd->destinationImage, cmd->sourceWidth, cmd->sourceHeight, cmd->x, cmd->y, cmd->w, cmd->h, cmd->xScale, cmd->yScale));
	PERF_END(PERF_CNT_BASE, 3);
}

void saveImage(Command* cmd)
{
 40010e4:	deffbb04 	addi	sp,sp,-276
	char ffname[MAX_PATH] = "/mnt/host/../../";
 40010e8:	109b4bc4 	addi	r2,r2,27951
 40010ec:	d8800015 	stw	r2,0(sp)
 40010f0:	009cdbf4 	movhi	r2,29551
 40010f4:	109a0bc4 	addi	r2,r2,26671
 40010f8:	d8800115 	stw	r2,4(sp)
 40010fc:	008b8bb4 	movhi	r2,11822
 4001100:	108bdd04 	addi	r2,r2,12148
 4001104:	d8800215 	stw	r2,8(sp)
 4001108:	008bcbb4 	movhi	r2,12078
 400110c:	01803b04 	movi	r6,236
	checkHWStatus(scaleHW(cmd->sourceImage, cmd->destinationImage, cmd->sourceWidth, cmd->sourceHeight, cmd->x, cmd->y, cmd->w, cmd->h, cmd->xScale, cmd->yScale));
	PERF_END(PERF_CNT_BASE, 3);
}

void saveImage(Command* cmd)
{
 4001110:	dc004015 	stw	r16,256(sp)
	char ffname[MAX_PATH] = "/mnt/host/../../";
 4001114:	000b883a 	mov	r5,zero
	checkHWStatus(scaleHW(cmd->sourceImage, cmd->destinationImage, cmd->sourceWidth, cmd->sourceHeight, cmd->x, cmd->y, cmd->w, cmd->h, cmd->xScale, cmd->yScale));
	PERF_END(PERF_CNT_BASE, 3);
}

void saveImage(Command* cmd)
{
 4001118:	2021883a 	mov	r16,r4
	char ffname[MAX_PATH] = "/mnt/host/../../";
 400111c:	108b8bc4 	addi	r2,r2,11823
 4001120:	d9000504 	addi	r4,sp,20
	checkHWStatus(scaleHW(cmd->sourceImage, cmd->destinationImage, cmd->sourceWidth, cmd->sourceHeight, cmd->x, cmd->y, cmd->w, cmd->h, cmd->xScale, cmd->yScale));
	PERF_END(PERF_CNT_BASE, 3);
}

void saveImage(Command* cmd)
{
 4001124:	dfc04415 	stw	ra,272(sp)
 4001128:	dcc04315 	stw	r19,268(sp)
 400112c:	dc804215 	stw	r18,264(sp)
 4001130:	dc404115 	stw	r17,260(sp)
	char ffname[MAX_PATH] = "/mnt/host/../../";
 4001134:	d8800315 	stw	r2,12(sp)
 4001138:	d8000415 	stw	zero,16(sp)
 400113c:	4003cec0 	call	4003cec <memset>
	strcat(ffname, cmd->fname);
 4001140:	81400044 	addi	r5,r16,1
 4001144:	d9000404 	addi	r4,sp,16
 4001148:	40043bc0 	call	40043bc <stpcpy>
	int dot = strlen(ffname);
	for (; ffname[dot] != '.'; dot--) {}
 400114c:	10c00007 	ldb	r3,0(r2)
 4001150:	01800b84 	movi	r6,46
 4001154:	16c5c83a 	sub	r2,r2,sp
 4001158:	19800726 	beq	r3,r6,4001178 <saveImage+0x98>
 400115c:	10ffffc4 	addi	r3,r2,-1
 4001160:	d8c9883a 	add	r4,sp,r3
 4001164:	213fffc4 	addi	r4,r4,-1
 4001168:	21400047 	ldb	r5,1(r4)
 400116c:	1805883a 	mov	r2,r3
 4001170:	18ffffc4 	addi	r3,r3,-1
 4001174:	29bffb1e 	bne	r5,r6,4001164 <__alt_data_end+0xfc001164>
	ffname[dot + 1] = 'o';
 4001178:	d887883a 	add	r3,sp,r2
 400117c:	01001bc4 	movi	r4,111
 4001180:	19000045 	stb	r4,1(r3)
	ffname[dot + 2] = 'u';
 4001184:	01001d44 	movi	r4,117
 4001188:	19000085 	stb	r4,2(r3)
	ffname[dot + 3] = 't';
	ffname[dot + 4] = 0;

	FILE* f = fopen(ffname, "wb");
 400118c:	01410074 	movhi	r5,1025
	strcat(ffname, cmd->fname);
	int dot = strlen(ffname);
	for (; ffname[dot] != '.'; dot--) {}
	ffname[dot + 1] = 'o';
	ffname[dot + 2] = 'u';
	ffname[dot + 3] = 't';
 4001190:	01001d04 	movi	r4,116
 4001194:	190000c5 	stb	r4,3(r3)
	ffname[dot + 4] = 0;

	FILE* f = fopen(ffname, "wb");
 4001198:	295ff704 	addi	r5,r5,32732
 400119c:	d809883a 	mov	r4,sp
	int dot = strlen(ffname);
	for (; ffname[dot] != '.'; dot--) {}
	ffname[dot + 1] = 'o';
	ffname[dot + 2] = 'u';
	ffname[dot + 3] = 't';
	ffname[dot + 4] = 0;
 40011a0:	18000105 	stb	zero,4(r3)

	FILE* f = fopen(ffname, "wb");
 40011a4:	400228c0 	call	400228c <fopen>
 40011a8:	1023883a 	mov	r17,r2
	if (f == NULL) { cmd->status = 12; return; }
 40011ac:	10001326 	beq	r2,zero,40011fc <saveImage+0x11c>

	size_t write = fwrite(&cmd->destinationWidth, sizeof(int), 1, f);
 40011b0:	04800044 	movi	r18,1
 40011b4:	100f883a 	mov	r7,r2
 40011b8:	900d883a 	mov	r6,r18
 40011bc:	01400104 	movi	r5,4
 40011c0:	81004b04 	addi	r4,r16,300
 40011c4:	40030880 	call	4003088 <fwrite>
 40011c8:	1027883a 	mov	r19,r2
	if (write != 1) { fclose(f); cmd->status = 13; return; }
 40011cc:	14800e26 	beq	r2,r18,4001208 <saveImage+0x128>
 40011d0:	8809883a 	mov	r4,r17
 40011d4:	4001b2c0 	call	4001b2c <fclose>
 40011d8:	00800344 	movi	r2,13
 40011dc:	80800005 	stb	r2,0(r16)

	write = fwrite(cmd->destinationImage, sizeof(unsigned char), cmd->destinationSize, f);
	if (write != cmd->destinationSize) { fclose(f); cmd->status = 15; return; }

	fclose(f);
}
 40011e0:	dfc04417 	ldw	ra,272(sp)
 40011e4:	dcc04317 	ldw	r19,268(sp)
 40011e8:	dc804217 	ldw	r18,264(sp)
 40011ec:	dc404117 	ldw	r17,260(sp)
 40011f0:	dc004017 	ldw	r16,256(sp)
 40011f4:	dec04504 	addi	sp,sp,276
 40011f8:	f800283a 	ret
	ffname[dot + 2] = 'u';
	ffname[dot + 3] = 't';
	ffname[dot + 4] = 0;

	FILE* f = fopen(ffname, "wb");
	if (f == NULL) { cmd->status = 12; return; }
 40011fc:	00800304 	movi	r2,12
 4001200:	80800005 	stb	r2,0(r16)
 4001204:	003ff606 	br	40011e0 <__alt_data_end+0xfc0011e0>

	size_t write = fwrite(&cmd->destinationWidth, sizeof(int), 1, f);
	if (write != 1) { fclose(f); cmd->status = 13; return; }

	write = fwrite(&cmd->destinationHeight, sizeof(int), 1, f);
 4001208:	880f883a 	mov	r7,r17
 400120c:	100d883a 	mov	r6,r2
 4001210:	01400104 	movi	r5,4
 4001214:	81004c04 	addi	r4,r16,304
 4001218:	40030880 	call	4003088 <fwrite>
	if (write != 1) { fclose(f); cmd->status = 14; return; }
 400121c:	14c00526 	beq	r2,r19,4001234 <saveImage+0x154>
 4001220:	8809883a 	mov	r4,r17
 4001224:	4001b2c0 	call	4001b2c <fclose>
 4001228:	00800384 	movi	r2,14
 400122c:	80800005 	stb	r2,0(r16)
 4001230:	003feb06 	br	40011e0 <__alt_data_end+0xfc0011e0>

	write = fwrite(cmd->destinationImage, sizeof(unsigned char), cmd->destinationSize, f);
 4001234:	81005117 	ldw	r4,324(r16)
 4001238:	81804e17 	ldw	r6,312(r16)
 400123c:	880f883a 	mov	r7,r17
 4001240:	100b883a 	mov	r5,r2
 4001244:	40030880 	call	4003088 <fwrite>
	if (write != cmd->destinationSize) { fclose(f); cmd->status = 15; return; }
 4001248:	80c04e17 	ldw	r3,312(r16)
 400124c:	8809883a 	mov	r4,r17
 4001250:	10c00426 	beq	r2,r3,4001264 <saveImage+0x184>
 4001254:	4001b2c0 	call	4001b2c <fclose>
 4001258:	008003c4 	movi	r2,15
 400125c:	80800005 	stb	r2,0(r16)
 4001260:	003fdf06 	br	40011e0 <__alt_data_end+0xfc0011e0>

	fclose(f);
 4001264:	4001b2c0 	call	4001b2c <fclose>
 4001268:	003fdd06 	br	40011e0 <__alt_data_end+0xfc0011e0>

0400126c <main>:
}

int main()
{
 400126c:	deff5a04 	addi	sp,sp,-664
 4001270:	dfc0a515 	stw	ra,660(sp)
	Command command;
	Command* cmd = &command;

	checkHWStatus(initHW());
 4001274:	40003800 	call	4000380 <initHW>
 4001278:	1009883a 	mov	r4,r2
 400127c:	40002f40 	call	40002f4 <checkHWStatus>

	printHelp();
 4001280:	40007700 	call	4000770 <printHelp>

	while(1)
	{
		command = parseCommand();
 4001284:	d9005304 	addi	r4,sp,332
 4001288:	40009f00 	call	40009f0 <parseCommand>
 400128c:	01805204 	movi	r6,328
 4001290:	d9405304 	addi	r5,sp,332
 4001294:	d809883a 	mov	r4,sp
 4001298:	4003ba40 	call	4003ba4 <memcpy>

		loadImage(cmd);
 400129c:	d809883a 	mov	r4,sp
 40012a0:	4000b6c0 	call	4000b6c <loadImage>
	if (cmd->destinationImage != NULL) { free(cmd->destinationImage); cmd->destinationImage = NULL; }
}

int checkCommand(Command* cmd)
{
	if (cmd->status != 0)
 40012a4:	d8800007 	ldb	r2,0(sp)
 40012a8:	10002c1e 	bne	r2,zero,400135c <main+0xf0>
	{
		command = parseCommand();

		loadImage(cmd);
		CCC(cmd);
		printf("Image loaded\n");
 40012ac:	01010074 	movhi	r4,1025
 40012b0:	211ff804 	addi	r4,r4,32736
 40012b4:	4003f340 	call	4003f34 <puts>

		int a;
		scanf("%d", &a);
 40012b8:	01010074 	movhi	r4,1025
 40012bc:	d9405204 	addi	r5,sp,328
 40012c0:	211ff504 	addi	r4,r4,32724
 40012c4:	40042140 	call	4004214 <scanf>

		if (cmd->benchmark)
 40012c8:	d8804047 	ldb	r2,257(sp)
 40012cc:	1000161e 	bne	r2,zero,4001328 <main+0xbc>
		{

		}
		else
		{
			prepareCommand(cmd);
 40012d0:	d809883a 	mov	r4,sp
 40012d4:	4000cf00 	call	4000cf0 <prepareCommand>
	if (cmd->destinationImage != NULL) { free(cmd->destinationImage); cmd->destinationImage = NULL; }
}

int checkCommand(Command* cmd)
{
	if (cmd->status != 0)
 40012d8:	d8800007 	ldb	r2,0(sp)
 40012dc:	10001f1e 	bne	r2,zero,400135c <main+0xf0>
		else
		{
			prepareCommand(cmd);
			CCC(cmd);

			resizeImage(cmd);
 40012e0:	d809883a 	mov	r4,sp
 40012e4:	4000fd00 	call	4000fd0 <resizeImage>
	if (cmd->destinationImage != NULL) { free(cmd->destinationImage); cmd->destinationImage = NULL; }
}

int checkCommand(Command* cmd)
{
	if (cmd->status != 0)
 40012e8:	d8800007 	ldb	r2,0(sp)
 40012ec:	10001b1e 	bne	r2,zero,400135c <main+0xf0>
			prepareCommand(cmd);
			CCC(cmd);

			resizeImage(cmd);
			CCC(cmd);
			printf("Image resized\n");
 40012f0:	01010074 	movhi	r4,1025
 40012f4:	211ffc04 	addi	r4,r4,32752
 40012f8:	4003f340 	call	4003f34 <puts>
			scanf("%d", &a);
 40012fc:	01010074 	movhi	r4,1025
 4001300:	d9405204 	addi	r5,sp,328
 4001304:	211ff504 	addi	r4,r4,32724
 4001308:	40042140 	call	4004214 <scanf>
			saveImage(cmd);
 400130c:	d809883a 	mov	r4,sp
 4001310:	40010e00 	call	40010e0 <saveImage>
	if (cmd->destinationImage != NULL) { free(cmd->destinationImage); cmd->destinationImage = NULL; }
}

int checkCommand(Command* cmd)
{
	if (cmd->status != 0)
 4001314:	d8800007 	ldb	r2,0(sp)
 4001318:	1000101e 	bne	r2,zero,400135c <main+0xf0>
			CCC(cmd);
			printf("Image resized\n");
			scanf("%d", &a);
			saveImage(cmd);
			CCC(cmd);
			printf("Image saved\n");
 400131c:	010100b4 	movhi	r4,1026
 4001320:	21200004 	addi	r4,r4,-32768
 4001324:	4003f340 	call	4003f34 <puts>
	else { printf("Unknown error\n"); }
}

void cleanup(Command* cmd)
{
	if (cmd->sourceImage != NULL) { free(cmd->sourceImage); cmd->sourceImage = NULL; }
 4001328:	d9004f17 	ldw	r4,316(sp)
 400132c:	20000226 	beq	r4,zero,4001338 <main+0xcc>
 4001330:	40033840 	call	4003384 <free>
 4001334:	d8004f15 	stw	zero,316(sp)
	if (cmd->referenceImage != NULL) { free(cmd->referenceImage); cmd->referenceImage = NULL; }
 4001338:	d9005017 	ldw	r4,320(sp)
 400133c:	20000226 	beq	r4,zero,4001348 <main+0xdc>
 4001340:	40033840 	call	4003384 <free>
 4001344:	d8005015 	stw	zero,320(sp)
	if (cmd->destinationImage != NULL) { free(cmd->destinationImage); cmd->destinationImage = NULL; }
 4001348:	d9005117 	ldw	r4,324(sp)
 400134c:	203fcd26 	beq	r4,zero,4001284 <__alt_data_end+0xfc001284>
 4001350:	40033840 	call	4003384 <free>
 4001354:	d8005115 	stw	zero,324(sp)
 4001358:	003fca06 	br	4001284 <__alt_data_end+0xfc001284>

void printError(Command* cmd)
{
	int status = cmd->status;
	if (status == 0) { printf("No error\n"); }
	else if (status >= 1 && status <= 5) { printf("Failed to load image\n"); }
 400135c:	10ffffc4 	addi	r3,r2,-1
 4001360:	01000104 	movi	r4,4
 4001364:	20c0122e 	bgeu	r4,r3,40013b0 <main+0x144>
	else if (status == 6) { printf("Invalid X scale factor\n"); }
 4001368:	00c00184 	movi	r3,6
 400136c:	10c01826 	beq	r2,r3,40013d0 <main+0x164>
	else if (status == 7) { printf("Invalid Y scale factor\n"); }
 4001370:	00c001c4 	movi	r3,7
 4001374:	10c01a26 	beq	r2,r3,40013e0 <main+0x174>
	else if (status == 8) { printf("Invalid picture start point\n"); }
 4001378:	00c00204 	movi	r3,8
 400137c:	10c01c26 	beq	r2,r3,40013f0 <main+0x184>
	else if (status == 9) { printf("Invalid picture end point\n"); }
 4001380:	00c00244 	movi	r3,9
 4001384:	10c01e26 	beq	r2,r3,4001400 <main+0x194>
	else if (status == 10 || status == 11) { printf("Failed to allocate output buffers\n"); }
 4001388:	10fffd84 	addi	r3,r2,-10
 400138c:	01000044 	movi	r4,1
 4001390:	20c01f2e 	bgeu	r4,r3,4001410 <main+0x1a4>
	else if (status >= 12 && status <= 15) { printf("Failed to save image\n"); }
 4001394:	10bffd04 	addi	r2,r2,-12
 4001398:	00c000c4 	movi	r3,3
 400139c:	1880082e 	bgeu	r3,r2,40013c0 <main+0x154>
	else { printf("Unknown error\n"); }
 40013a0:	01010074 	movhi	r4,1025
 40013a4:	211f6304 	addi	r4,r4,32140
 40013a8:	4003f340 	call	4003f34 <puts>
 40013ac:	003fde06 	br	4001328 <__alt_data_end+0xfc001328>

void printError(Command* cmd)
{
	int status = cmd->status;
	if (status == 0) { printf("No error\n"); }
	else if (status >= 1 && status <= 5) { printf("Failed to load image\n"); }
 40013b0:	01010074 	movhi	r4,1025
 40013b4:	211fc204 	addi	r4,r4,32520
 40013b8:	4003f340 	call	4003f34 <puts>
 40013bc:	003fda06 	br	4001328 <__alt_data_end+0xfc001328>
	else if (status == 6) { printf("Invalid X scale factor\n"); }
	else if (status == 7) { printf("Invalid Y scale factor\n"); }
	else if (status == 8) { printf("Invalid picture start point\n"); }
	else if (status == 9) { printf("Invalid picture end point\n"); }
	else if (status == 10 || status == 11) { printf("Failed to allocate output buffers\n"); }
	else if (status >= 12 && status <= 15) { printf("Failed to save image\n"); }
 40013c0:	01010074 	movhi	r4,1025
 40013c4:	211feb04 	addi	r4,r4,32684
 40013c8:	4003f340 	call	4003f34 <puts>
 40013cc:	003fd606 	br	4001328 <__alt_data_end+0xfc001328>
void printError(Command* cmd)
{
	int status = cmd->status;
	if (status == 0) { printf("No error\n"); }
	else if (status >= 1 && status <= 5) { printf("Failed to load image\n"); }
	else if (status == 6) { printf("Invalid X scale factor\n"); }
 40013d0:	01010074 	movhi	r4,1025
 40013d4:	211fc804 	addi	r4,r4,32544
 40013d8:	4003f340 	call	4003f34 <puts>
 40013dc:	003fd206 	br	4001328 <__alt_data_end+0xfc001328>
	else if (status == 7) { printf("Invalid Y scale factor\n"); }
 40013e0:	01010074 	movhi	r4,1025
 40013e4:	211fce04 	addi	r4,r4,32568
 40013e8:	4003f340 	call	4003f34 <puts>
 40013ec:	003fce06 	br	4001328 <__alt_data_end+0xfc001328>
	else if (status == 8) { printf("Invalid picture start point\n"); }
 40013f0:	01010074 	movhi	r4,1025
 40013f4:	211fd404 	addi	r4,r4,32592
 40013f8:	4003f340 	call	4003f34 <puts>
 40013fc:	003fca06 	br	4001328 <__alt_data_end+0xfc001328>
	else if (status == 9) { printf("Invalid picture end point\n"); }
 4001400:	01010074 	movhi	r4,1025
 4001404:	211fdb04 	addi	r4,r4,32620
 4001408:	4003f340 	call	4003f34 <puts>
 400140c:	003fc606 	br	4001328 <__alt_data_end+0xfc001328>
	else if (status == 10 || status == 11) { printf("Failed to allocate output buffers\n"); }
 4001410:	01010074 	movhi	r4,1025
 4001414:	211fe204 	addi	r4,r4,32648
 4001418:	4003f340 	call	4003f34 <puts>
 400141c:	003fc206 	br	4001328 <__alt_data_end+0xfc001328>

04001420 <scaleLineSW>:
#include <string.h>

#define PIXEL(x, y, width) ((x) + (y) * (width))

void scaleLineSW(unsigned char* source, unsigned char* destination, int width, int xScale)
{
 4001420:	defff604 	addi	sp,sp,-40
 4001424:	dcc00315 	stw	r19,12(sp)
 4001428:	dc800215 	stw	r18,8(sp)
 400142c:	dc400115 	stw	r17,4(sp)
 4001430:	dc000015 	stw	r16,0(sp)
 4001434:	dfc00915 	stw	ra,36(sp)
 4001438:	df000815 	stw	fp,32(sp)
 400143c:	ddc00715 	stw	r23,28(sp)
 4001440:	dd800615 	stw	r22,24(sp)
 4001444:	dd400515 	stw	r21,20(sp)
 4001448:	dd000415 	stw	r20,16(sp)
 400144c:	3825883a 	mov	r18,r7
 4001450:	2021883a 	mov	r16,r4
 4001454:	2823883a 	mov	r17,r5
 4001458:	3027883a 	mov	r19,r6
	if (xScale > 0)
 400145c:	01c0160e 	bge	zero,r7,40014b8 <scaleLineSW+0x98>
	{
		for (int i = 0; i < width; i++)
 4001460:	0180090e 	bge	zero,r6,4001488 <scaleLineSW+0x68>
 4001464:	2807883a 	mov	r3,r5
 4001468:	21a3883a 	add	r17,r4,r6
		{
			memset(&destination[i * xScale], source[i], xScale);
 400146c:	81400003 	ldbu	r5,0(r16)
 4001470:	1809883a 	mov	r4,r3
 4001474:	900d883a 	mov	r6,r18
 4001478:	4003cec0 	call	4003cec <memset>
 400147c:	84000044 	addi	r16,r16,1
 4001480:	1487883a 	add	r3,r2,r18

void scaleLineSW(unsigned char* source, unsigned char* destination, int width, int xScale)
{
	if (xScale > 0)
	{
		for (int i = 0; i < width; i++)
 4001484:	847ff91e 	bne	r16,r17,400146c <__alt_data_end+0xfc00146c>
		for (int i = 0; i < width; i += xScale)
		{
			destination[i / xScale] = source[i];
		}
	}
}
 4001488:	dfc00917 	ldw	ra,36(sp)
 400148c:	df000817 	ldw	fp,32(sp)
 4001490:	ddc00717 	ldw	r23,28(sp)
 4001494:	dd800617 	ldw	r22,24(sp)
 4001498:	dd400517 	ldw	r21,20(sp)
 400149c:	dd000417 	ldw	r20,16(sp)
 40014a0:	dcc00317 	ldw	r19,12(sp)
 40014a4:	dc800217 	ldw	r18,8(sp)
 40014a8:	dc400117 	ldw	r17,4(sp)
 40014ac:	dc000017 	ldw	r16,0(sp)
 40014b0:	dec00a04 	addi	sp,sp,40
 40014b4:	f800283a 	ret
			memset(&destination[i * xScale], source[i], xScale);
		}
	}
	else
	{
		xScale = - xScale;
 40014b8:	01ebc83a 	sub	r21,zero,r7
		for (int i = 0; i < width; i += xScale)
 40014bc:	01bff20e 	bge	zero,r6,4001488 <__alt_data_end+0xfc001488>
		{
			destination[i / xScale] = source[i];
 40014c0:	070100b4 	movhi	fp,1026
		}
	}
	else
	{
		xScale = - xScale;
		for (int i = 0; i < width; i += xScale)
 40014c4:	2029883a 	mov	r20,r4
		{
			destination[i / xScale] = source[i];
 40014c8:	e721cf04 	addi	fp,fp,-30916
 40014cc:	0009883a 	mov	r4,zero
 40014d0:	05c003c4 	movi	r23,15
 40014d4:	00000606 	br	40014f0 <scaleLineSW+0xd0>
 40014d8:	10800003 	ldbu	r2,0(r2)
 40014dc:	8885883a 	add	r2,r17,r2
 40014e0:	a4a9c83a 	sub	r20,r20,r18
 40014e4:	15800005 	stb	r22,0(r2)
		}
	}
	else
	{
		xScale = - xScale;
		for (int i = 0; i < width; i += xScale)
 40014e8:	a409c83a 	sub	r4,r20,r16
 40014ec:	24ffe60e 	bge	r4,r19,4001488 <__alt_data_end+0xfc001488>
		{
			destination[i / xScale] = source[i];
 40014f0:	2004913a 	slli	r2,r4,4
 40014f4:	2546b03a 	or	r3,r4,r21
 40014f8:	a80b883a 	mov	r5,r21
 40014fc:	1544b03a 	or	r2,r2,r21
 4001500:	1705883a 	add	r2,r2,fp
 4001504:	a5800003 	ldbu	r22,0(r20)
 4001508:	b8fff32e 	bgeu	r23,r3,40014d8 <__alt_data_end+0xfc0014d8>
 400150c:	40018600 	call	4001860 <__divsi3>
 4001510:	003ff206 	br	40014dc <__alt_data_end+0xfc0014dc>

04001514 <scaleSW>:
		}
	}
}

void scaleSW(unsigned char* source, unsigned char* destination, int sourceWidth, int sourceHeight, int x, int y, int width, int height, int xScale, int yScale)
{
 4001514:	defff204 	addi	sp,sp,-56
 4001518:	dc000415 	stw	r16,16(sp)
 400151c:	dc001217 	ldw	r16,72(sp)
 4001520:	dd400915 	stw	r21,36(sp)
 4001524:	dc800615 	stw	r18,24(sp)
 4001528:	dfc00d15 	stw	ra,52(sp)
 400152c:	df000c15 	stw	fp,48(sp)
 4001530:	ddc00b15 	stw	r23,44(sp)
 4001534:	dd800a15 	stw	r22,40(sp)
 4001538:	dd000815 	stw	r20,32(sp)
 400153c:	dcc00715 	stw	r19,28(sp)
 4001540:	dc400515 	stw	r17,20(sp)
 4001544:	d9400315 	stw	r5,12(sp)
 4001548:	d9800115 	stw	r6,4(sp)
 400154c:	2025883a 	mov	r18,r4
 4001550:	dd401017 	ldw	r21,64(sp)
	int dwidth = xScale > 0 ? width * xScale : width / -xScale;
 4001554:	0400640e 	bge	zero,r16,40016e8 <scaleSW+0x1d4>
 4001558:	a80b883a 	mov	r5,r21
 400155c:	8009883a 	mov	r4,r16
 4001560:	4001a140 	call	4001a14 <__mulsi3>
 4001564:	102d883a 	mov	r22,r2
	if (yScale > 0)
 4001568:	d8c01317 	ldw	r3,76(sp)
 400156c:	00c0670e 	bge	zero,r3,400170c <scaleSW+0x1f8>
	{
		for (int i = 0; i < height; i++)
 4001570:	d8c01117 	ldw	r3,68(sp)
 4001574:	00c02b0e 	bge	zero,r3,4001624 <scaleSW+0x110>
 4001578:	d9401317 	ldw	r5,76(sp)
 400157c:	b009883a 	mov	r4,r22
 4001580:	002f883a 	mov	r23,zero
 4001584:	4001a140 	call	4001a14 <__mulsi3>
 4001588:	d9400117 	ldw	r5,4(sp)
 400158c:	d9000f17 	ldw	r4,60(sp)
 4001590:	d8800015 	stw	r2,0(sp)
 4001594:	4001a140 	call	4001a14 <__mulsi3>
 4001598:	d9400e17 	ldw	r5,56(sp)
 400159c:	b587883a 	add	r3,r22,r22
 40015a0:	d8c00215 	stw	r3,8(sp)
 40015a4:	1145883a 	add	r2,r2,r5
 40015a8:	1d87883a 	add	r3,r3,r22
 40015ac:	dc400317 	ldw	r17,12(sp)
 40015b0:	90a9883a 	add	r20,r18,r2
 40015b4:	d8c00315 	stw	r3,12(sp)
			memset(&destination[i * xScale], source[i], xScale);
		}
	}
	else
	{
		xScale = - xScale;
 40015b8:	0425c83a 	sub	r18,zero,r16

#define PIXEL(x, y, width) ((x) + (y) * (width))

void scaleLineSW(unsigned char* source, unsigned char* destination, int width, int xScale)
{
	if (xScale > 0)
 40015bc:	0400340e 	bge	zero,r16,4001690 <scaleSW+0x17c>
	{
		for (int i = 0; i < width; i++)
 40015c0:	05400a0e 	bge	zero,r21,40015ec <scaleSW+0xd8>
 40015c4:	ad27883a 	add	r19,r21,r20
 40015c8:	880f883a 	mov	r7,r17
 40015cc:	a039883a 	mov	fp,r20
		{
			memset(&destination[i * xScale], source[i], xScale);
 40015d0:	e1400003 	ldbu	r5,0(fp)
 40015d4:	3809883a 	mov	r4,r7
 40015d8:	800d883a 	mov	r6,r16
 40015dc:	4003cec0 	call	4003cec <memset>
 40015e0:	e7000044 	addi	fp,fp,1
 40015e4:	140f883a 	add	r7,r2,r16

void scaleLineSW(unsigned char* source, unsigned char* destination, int width, int xScale)
{
	if (xScale > 0)
	{
		for (int i = 0; i < width; i++)
 40015e8:	9f3ff91e 	bne	r19,fp,40015d0 <__alt_data_end+0xfc0015d0>
	if (yScale > 0)
	{
		for (int i = 0; i < height; i++)
		{
			scaleLineSW(&source[PIXEL(x, y + i, sourceWidth)], &destination[PIXEL(0, i * yScale, dwidth)], width, xScale);
			switch(yScale)
 40015ec:	d8c01317 	ldw	r3,76(sp)
 40015f0:	014000c4 	movi	r5,3
 40015f4:	19401c26 	beq	r3,r5,4001668 <scaleSW+0x154>
 40015f8:	01800104 	movi	r6,4
 40015fc:	19801526 	beq	r3,r6,4001654 <scaleSW+0x140>
 4001600:	00800084 	movi	r2,2
 4001604:	18801d26 	beq	r3,r2,400167c <scaleSW+0x168>
 4001608:	d8c00017 	ldw	r3,0(sp)
void scaleSW(unsigned char* source, unsigned char* destination, int sourceWidth, int sourceHeight, int x, int y, int width, int height, int xScale, int yScale)
{
	int dwidth = xScale > 0 ? width * xScale : width / -xScale;
	if (yScale > 0)
	{
		for (int i = 0; i < height; i++)
 400160c:	bdc00044 	addi	r23,r23,1
 4001610:	88e3883a 	add	r17,r17,r3
 4001614:	d8c00117 	ldw	r3,4(sp)
 4001618:	a0e9883a 	add	r20,r20,r3
 400161c:	d8c01117 	ldw	r3,68(sp)
 4001620:	1dffe61e 	bne	r3,r23,40015bc <__alt_data_end+0xfc0015bc>
		for (int i = 0; i < height; i += yScale)
		{
			scaleLineSW(&source[PIXEL(x, y + i, sourceWidth)], &destination[PIXEL(0, i / yScale , dwidth)], width, xScale);
		}
	}
}
 4001624:	dfc00d17 	ldw	ra,52(sp)
 4001628:	df000c17 	ldw	fp,48(sp)
 400162c:	ddc00b17 	ldw	r23,44(sp)
 4001630:	dd800a17 	ldw	r22,40(sp)
 4001634:	dd400917 	ldw	r21,36(sp)
 4001638:	dd000817 	ldw	r20,32(sp)
 400163c:	dcc00717 	ldw	r19,28(sp)
 4001640:	dc800617 	ldw	r18,24(sp)
 4001644:	dc400517 	ldw	r17,20(sp)
 4001648:	dc000417 	ldw	r16,16(sp)
 400164c:	dec00e04 	addi	sp,sp,56
 4001650:	f800283a 	ret
		for (int i = 0; i < height; i++)
		{
			scaleLineSW(&source[PIXEL(x, y + i, sourceWidth)], &destination[PIXEL(0, i * yScale, dwidth)], width, xScale);
			switch(yScale)
			{
			case 4: { memcpy(&destination[PIXEL(0, i * yScale + 3, dwidth)], &destination[PIXEL(0, i * yScale, dwidth)], dwidth); }
 4001654:	d8c00317 	ldw	r3,12(sp)
 4001658:	b00d883a 	mov	r6,r22
 400165c:	880b883a 	mov	r5,r17
 4001660:	88c9883a 	add	r4,r17,r3
 4001664:	4003ba40 	call	4003ba4 <memcpy>
			case 3: { memcpy(&destination[PIXEL(0, i * yScale + 2, dwidth)], &destination[PIXEL(0, i * yScale, dwidth)], dwidth); }
 4001668:	d8c00217 	ldw	r3,8(sp)
 400166c:	b00d883a 	mov	r6,r22
 4001670:	880b883a 	mov	r5,r17
 4001674:	88c9883a 	add	r4,r17,r3
 4001678:	4003ba40 	call	4003ba4 <memcpy>
			case 2: { memcpy(&destination[PIXEL(0, i * yScale + 1, dwidth)], &destination[PIXEL(0, i * yScale, dwidth)], dwidth); }
 400167c:	b00d883a 	mov	r6,r22
 4001680:	880b883a 	mov	r5,r17
 4001684:	8d89883a 	add	r4,r17,r22
 4001688:	4003ba40 	call	4003ba4 <memcpy>
 400168c:	003fde06 	br	4001608 <__alt_data_end+0xfc001608>
		}
	}
	else
	{
		xScale = - xScale;
		for (int i = 0; i < width; i += xScale)
 4001690:	057fd60e 	bge	zero,r21,40015ec <__alt_data_end+0xfc0015ec>
 4001694:	a027883a 	mov	r19,r20
 4001698:	0009883a 	mov	r4,zero
 400169c:	00000606 	br	40016b8 <scaleSW+0x1a4>
		{
			destination[i / xScale] = source[i];
 40016a0:	10800003 	ldbu	r2,0(r2)
 40016a4:	8885883a 	add	r2,r17,r2
 40016a8:	9c27c83a 	sub	r19,r19,r16
 40016ac:	17000005 	stb	fp,0(r2)
		}
	}
	else
	{
		xScale = - xScale;
		for (int i = 0; i < width; i += xScale)
 40016b0:	9d09c83a 	sub	r4,r19,r20
 40016b4:	257fcd0e 	bge	r4,r21,40015ec <__alt_data_end+0xfc0015ec>
		{
			destination[i / xScale] = source[i];
 40016b8:	2004913a 	slli	r2,r4,4
 40016bc:	014100b4 	movhi	r5,1026
 40016c0:	2961cf04 	addi	r5,r5,-30916
 40016c4:	1484b03a 	or	r2,r2,r18
 40016c8:	2486b03a 	or	r3,r4,r18
 40016cc:	018003c4 	movi	r6,15
 40016d0:	1145883a 	add	r2,r2,r5
 40016d4:	9f000003 	ldbu	fp,0(r19)
 40016d8:	900b883a 	mov	r5,r18
 40016dc:	30fff02e 	bgeu	r6,r3,40016a0 <__alt_data_end+0xfc0016a0>
 40016e0:	40018600 	call	4001860 <__divsi3>
 40016e4:	003fef06 	br	40016a4 <__alt_data_end+0xfc0016a4>
	}
}

void scaleSW(unsigned char* source, unsigned char* destination, int sourceWidth, int sourceHeight, int x, int y, int width, int height, int xScale, int yScale)
{
	int dwidth = xScale > 0 ? width * xScale : width / -xScale;
 40016e8:	040bc83a 	sub	r5,zero,r16
 40016ec:	a944b03a 	or	r2,r21,r5
 40016f0:	00c003c4 	movi	r3,15
 40016f4:	1880532e 	bgeu	r3,r2,4001844 <scaleSW+0x330>
 40016f8:	a809883a 	mov	r4,r21
 40016fc:	40018600 	call	4001860 <__divsi3>
	if (yScale > 0)
 4001700:	d8c01317 	ldw	r3,76(sp)
	}
}

void scaleSW(unsigned char* source, unsigned char* destination, int sourceWidth, int sourceHeight, int x, int y, int width, int height, int xScale, int yScale)
{
	int dwidth = xScale > 0 ? width * xScale : width / -xScale;
 4001704:	102d883a 	mov	r22,r2
	if (yScale > 0)
 4001708:	00ff9916 	blt	zero,r3,4001570 <__alt_data_end+0xfc001570>
			}
		}
	}
	else
	{
		yScale = - yScale;
 400170c:	00c7c83a 	sub	r3,zero,r3
 4001710:	d8c00015 	stw	r3,0(sp)
		for (int i = 0; i < height; i += yScale)
 4001714:	d8c01117 	ldw	r3,68(sp)
 4001718:	00ffc20e 	bge	zero,r3,4001624 <__alt_data_end+0xfc001624>
 400171c:	d9000117 	ldw	r4,4(sp)
 4001720:	d9400017 	ldw	r5,0(sp)
 4001724:	0029883a 	mov	r20,zero
		{
			scaleLineSW(&source[PIXEL(x, y + i, sourceWidth)], &destination[PIXEL(0, i / yScale , dwidth)], width, xScale);
 4001728:	05c003c4 	movi	r23,15
 400172c:	4001a140 	call	4001a14 <__mulsi3>
 4001730:	d9400117 	ldw	r5,4(sp)
 4001734:	d9000f17 	ldw	r4,60(sp)
 4001738:	d8800215 	stw	r2,8(sp)
			memset(&destination[i * xScale], source[i], xScale);
		}
	}
	else
	{
		xScale = - xScale;
 400173c:	0423c83a 	sub	r17,zero,r16
 4001740:	4001a140 	call	4001a14 <__mulsi3>
 4001744:	d9400e17 	ldw	r5,56(sp)
	else
	{
		yScale = - yScale;
		for (int i = 0; i < height; i += yScale)
		{
			scaleLineSW(&source[PIXEL(x, y + i, sourceWidth)], &destination[PIXEL(0, i / yScale , dwidth)], width, xScale);
 4001748:	d8c00017 	ldw	r3,0(sp)
			memset(&destination[i * xScale], source[i], xScale);
		}
	}
	else
	{
		xScale = - xScale;
 400174c:	dd800115 	stw	r22,4(sp)
 4001750:	1145883a 	add	r2,r2,r5
 4001754:	90a7883a 	add	r19,r18,r2
	else
	{
		yScale = - yScale;
		for (int i = 0; i < height; i += yScale)
		{
			scaleLineSW(&source[PIXEL(x, y + i, sourceWidth)], &destination[PIXEL(0, i / yScale , dwidth)], width, xScale);
 4001758:	a0c4b03a 	or	r2,r20,r3
 400175c:	b8801f36 	bltu	r23,r2,40017dc <scaleSW+0x2c8>
 4001760:	a004913a 	slli	r2,r20,4
 4001764:	014100b4 	movhi	r5,1026
 4001768:	2961cf04 	addi	r5,r5,-30916
 400176c:	10c4b03a 	or	r2,r2,r3
 4001770:	1145883a 	add	r2,r2,r5
 4001774:	11000003 	ldbu	r4,0(r2)
 4001778:	d9400117 	ldw	r5,4(sp)
 400177c:	4001a140 	call	4001a14 <__mulsi3>
 4001780:	d8c00317 	ldw	r3,12(sp)
 4001784:	18a5883a 	add	r18,r3,r2

#define PIXEL(x, y, width) ((x) + (y) * (width))

void scaleLineSW(unsigned char* source, unsigned char* destination, int width, int xScale)
{
	if (xScale > 0)
 4001788:	0400190e 	bge	zero,r16,40017f0 <scaleSW+0x2dc>
	{
		for (int i = 0; i < width; i++)
 400178c:	05400a0e 	bge	zero,r21,40017b8 <scaleSW+0x2a4>
 4001790:	900f883a 	mov	r7,r18
 4001794:	982d883a 	mov	r22,r19
 4001798:	ace5883a 	add	r18,r21,r19
		{
			memset(&destination[i * xScale], source[i], xScale);
 400179c:	b1400003 	ldbu	r5,0(r22)
 40017a0:	3809883a 	mov	r4,r7
 40017a4:	800d883a 	mov	r6,r16
 40017a8:	4003cec0 	call	4003cec <memset>
 40017ac:	b5800044 	addi	r22,r22,1
 40017b0:	140f883a 	add	r7,r2,r16

void scaleLineSW(unsigned char* source, unsigned char* destination, int width, int xScale)
{
	if (xScale > 0)
	{
		for (int i = 0; i < width; i++)
 40017b4:	b4bff91e 	bne	r22,r18,400179c <__alt_data_end+0xfc00179c>
		}
	}
	else
	{
		yScale = - yScale;
		for (int i = 0; i < height; i += yScale)
 40017b8:	d8c01317 	ldw	r3,76(sp)
 40017bc:	a0e9c83a 	sub	r20,r20,r3
 40017c0:	d8c00217 	ldw	r3,8(sp)
 40017c4:	98e7883a 	add	r19,r19,r3
 40017c8:	d8c01117 	ldw	r3,68(sp)
 40017cc:	a0ff950e 	bge	r20,r3,4001624 <__alt_data_end+0xfc001624>
		{
			scaleLineSW(&source[PIXEL(x, y + i, sourceWidth)], &destination[PIXEL(0, i / yScale , dwidth)], width, xScale);
 40017d0:	d8c00017 	ldw	r3,0(sp)
 40017d4:	a0c4b03a 	or	r2,r20,r3
 40017d8:	b8bfe12e 	bgeu	r23,r2,4001760 <__alt_data_end+0xfc001760>
 40017dc:	a009883a 	mov	r4,r20
 40017e0:	180b883a 	mov	r5,r3
 40017e4:	40018600 	call	4001860 <__divsi3>
 40017e8:	1009883a 	mov	r4,r2
 40017ec:	003fe206 	br	4001778 <__alt_data_end+0xfc001778>
		}
	}
	else
	{
		xScale = - xScale;
		for (int i = 0; i < width; i += xScale)
 40017f0:	057ff10e 	bge	zero,r21,40017b8 <__alt_data_end+0xfc0017b8>
 40017f4:	982d883a 	mov	r22,r19
 40017f8:	0009883a 	mov	r4,zero
 40017fc:	00000606 	br	4001818 <scaleSW+0x304>
		{
			destination[i / xScale] = source[i];
 4001800:	10800003 	ldbu	r2,0(r2)
 4001804:	9085883a 	add	r2,r18,r2
 4001808:	b42dc83a 	sub	r22,r22,r16
 400180c:	17000005 	stb	fp,0(r2)
		}
	}
	else
	{
		xScale = - xScale;
		for (int i = 0; i < width; i += xScale)
 4001810:	b4c9c83a 	sub	r4,r22,r19
 4001814:	257fe80e 	bge	r4,r21,40017b8 <__alt_data_end+0xfc0017b8>
		{
			destination[i / xScale] = source[i];
 4001818:	2004913a 	slli	r2,r4,4
 400181c:	014100b4 	movhi	r5,1026
 4001820:	2961cf04 	addi	r5,r5,-30916
 4001824:	1444b03a 	or	r2,r2,r17
 4001828:	244eb03a 	or	r7,r4,r17
 400182c:	1145883a 	add	r2,r2,r5
 4001830:	b7000003 	ldbu	fp,0(r22)
 4001834:	880b883a 	mov	r5,r17
 4001838:	b9fff12e 	bgeu	r23,r7,4001800 <__alt_data_end+0xfc001800>
 400183c:	40018600 	call	4001860 <__divsi3>
 4001840:	003ff006 	br	4001804 <__alt_data_end+0xfc001804>
	}
}

void scaleSW(unsigned char* source, unsigned char* destination, int sourceWidth, int sourceHeight, int x, int y, int width, int height, int xScale, int yScale)
{
	int dwidth = xScale > 0 ? width * xScale : width / -xScale;
 4001844:	a804913a 	slli	r2,r21,4
 4001848:	114ab03a 	or	r5,r2,r5
 400184c:	008100b4 	movhi	r2,1026
 4001850:	10a1cf04 	addi	r2,r2,-30916
 4001854:	288b883a 	add	r5,r5,r2
 4001858:	2d800003 	ldbu	r22,0(r5)
 400185c:	003f4206 	br	4001568 <__alt_data_end+0xfc001568>

04001860 <__divsi3>:
 4001860:	20001b16 	blt	r4,zero,40018d0 <__divsi3+0x70>
 4001864:	000f883a 	mov	r7,zero
 4001868:	28001616 	blt	r5,zero,40018c4 <__divsi3+0x64>
 400186c:	200d883a 	mov	r6,r4
 4001870:	29001a2e 	bgeu	r5,r4,40018dc <__divsi3+0x7c>
 4001874:	00800804 	movi	r2,32
 4001878:	00c00044 	movi	r3,1
 400187c:	00000106 	br	4001884 <__divsi3+0x24>
 4001880:	10000d26 	beq	r2,zero,40018b8 <__divsi3+0x58>
 4001884:	294b883a 	add	r5,r5,r5
 4001888:	10bfffc4 	addi	r2,r2,-1
 400188c:	18c7883a 	add	r3,r3,r3
 4001890:	293ffb36 	bltu	r5,r4,4001880 <__alt_data_end+0xfc001880>
 4001894:	0005883a 	mov	r2,zero
 4001898:	18000726 	beq	r3,zero,40018b8 <__divsi3+0x58>
 400189c:	0005883a 	mov	r2,zero
 40018a0:	31400236 	bltu	r6,r5,40018ac <__divsi3+0x4c>
 40018a4:	314dc83a 	sub	r6,r6,r5
 40018a8:	10c4b03a 	or	r2,r2,r3
 40018ac:	1806d07a 	srli	r3,r3,1
 40018b0:	280ad07a 	srli	r5,r5,1
 40018b4:	183ffa1e 	bne	r3,zero,40018a0 <__alt_data_end+0xfc0018a0>
 40018b8:	38000126 	beq	r7,zero,40018c0 <__divsi3+0x60>
 40018bc:	0085c83a 	sub	r2,zero,r2
 40018c0:	f800283a 	ret
 40018c4:	014bc83a 	sub	r5,zero,r5
 40018c8:	39c0005c 	xori	r7,r7,1
 40018cc:	003fe706 	br	400186c <__alt_data_end+0xfc00186c>
 40018d0:	0109c83a 	sub	r4,zero,r4
 40018d4:	01c00044 	movi	r7,1
 40018d8:	003fe306 	br	4001868 <__alt_data_end+0xfc001868>
 40018dc:	00c00044 	movi	r3,1
 40018e0:	003fee06 	br	400189c <__alt_data_end+0xfc00189c>

040018e4 <__modsi3>:
 40018e4:	20001716 	blt	r4,zero,4001944 <__modsi3+0x60>
 40018e8:	000f883a 	mov	r7,zero
 40018ec:	2005883a 	mov	r2,r4
 40018f0:	28001216 	blt	r5,zero,400193c <__modsi3+0x58>
 40018f4:	2900162e 	bgeu	r5,r4,4001950 <__modsi3+0x6c>
 40018f8:	01800804 	movi	r6,32
 40018fc:	00c00044 	movi	r3,1
 4001900:	00000106 	br	4001908 <__modsi3+0x24>
 4001904:	30000a26 	beq	r6,zero,4001930 <__modsi3+0x4c>
 4001908:	294b883a 	add	r5,r5,r5
 400190c:	31bfffc4 	addi	r6,r6,-1
 4001910:	18c7883a 	add	r3,r3,r3
 4001914:	293ffb36 	bltu	r5,r4,4001904 <__alt_data_end+0xfc001904>
 4001918:	18000526 	beq	r3,zero,4001930 <__modsi3+0x4c>
 400191c:	1806d07a 	srli	r3,r3,1
 4001920:	11400136 	bltu	r2,r5,4001928 <__modsi3+0x44>
 4001924:	1145c83a 	sub	r2,r2,r5
 4001928:	280ad07a 	srli	r5,r5,1
 400192c:	183ffb1e 	bne	r3,zero,400191c <__alt_data_end+0xfc00191c>
 4001930:	38000126 	beq	r7,zero,4001938 <__modsi3+0x54>
 4001934:	0085c83a 	sub	r2,zero,r2
 4001938:	f800283a 	ret
 400193c:	014bc83a 	sub	r5,zero,r5
 4001940:	003fec06 	br	40018f4 <__alt_data_end+0xfc0018f4>
 4001944:	0109c83a 	sub	r4,zero,r4
 4001948:	01c00044 	movi	r7,1
 400194c:	003fe706 	br	40018ec <__alt_data_end+0xfc0018ec>
 4001950:	00c00044 	movi	r3,1
 4001954:	003ff106 	br	400191c <__alt_data_end+0xfc00191c>

04001958 <__udivsi3>:
 4001958:	200d883a 	mov	r6,r4
 400195c:	2900152e 	bgeu	r5,r4,40019b4 <__udivsi3+0x5c>
 4001960:	28001416 	blt	r5,zero,40019b4 <__udivsi3+0x5c>
 4001964:	00800804 	movi	r2,32
 4001968:	00c00044 	movi	r3,1
 400196c:	00000206 	br	4001978 <__udivsi3+0x20>
 4001970:	10000e26 	beq	r2,zero,40019ac <__udivsi3+0x54>
 4001974:	28000516 	blt	r5,zero,400198c <__udivsi3+0x34>
 4001978:	294b883a 	add	r5,r5,r5
 400197c:	10bfffc4 	addi	r2,r2,-1
 4001980:	18c7883a 	add	r3,r3,r3
 4001984:	293ffa36 	bltu	r5,r4,4001970 <__alt_data_end+0xfc001970>
 4001988:	18000826 	beq	r3,zero,40019ac <__udivsi3+0x54>
 400198c:	0005883a 	mov	r2,zero
 4001990:	31400236 	bltu	r6,r5,400199c <__udivsi3+0x44>
 4001994:	314dc83a 	sub	r6,r6,r5
 4001998:	10c4b03a 	or	r2,r2,r3
 400199c:	1806d07a 	srli	r3,r3,1
 40019a0:	280ad07a 	srli	r5,r5,1
 40019a4:	183ffa1e 	bne	r3,zero,4001990 <__alt_data_end+0xfc001990>
 40019a8:	f800283a 	ret
 40019ac:	0005883a 	mov	r2,zero
 40019b0:	f800283a 	ret
 40019b4:	00c00044 	movi	r3,1
 40019b8:	003ff406 	br	400198c <__alt_data_end+0xfc00198c>

040019bc <__umodsi3>:
 40019bc:	2005883a 	mov	r2,r4
 40019c0:	2900122e 	bgeu	r5,r4,4001a0c <__umodsi3+0x50>
 40019c4:	28001116 	blt	r5,zero,4001a0c <__umodsi3+0x50>
 40019c8:	01800804 	movi	r6,32
 40019cc:	00c00044 	movi	r3,1
 40019d0:	00000206 	br	40019dc <__umodsi3+0x20>
 40019d4:	30000c26 	beq	r6,zero,4001a08 <__umodsi3+0x4c>
 40019d8:	28000516 	blt	r5,zero,40019f0 <__umodsi3+0x34>
 40019dc:	294b883a 	add	r5,r5,r5
 40019e0:	31bfffc4 	addi	r6,r6,-1
 40019e4:	18c7883a 	add	r3,r3,r3
 40019e8:	293ffa36 	bltu	r5,r4,40019d4 <__alt_data_end+0xfc0019d4>
 40019ec:	18000626 	beq	r3,zero,4001a08 <__umodsi3+0x4c>
 40019f0:	1806d07a 	srli	r3,r3,1
 40019f4:	11400136 	bltu	r2,r5,40019fc <__umodsi3+0x40>
 40019f8:	1145c83a 	sub	r2,r2,r5
 40019fc:	280ad07a 	srli	r5,r5,1
 4001a00:	183ffb1e 	bne	r3,zero,40019f0 <__alt_data_end+0xfc0019f0>
 4001a04:	f800283a 	ret
 4001a08:	f800283a 	ret
 4001a0c:	00c00044 	movi	r3,1
 4001a10:	003ff706 	br	40019f0 <__alt_data_end+0xfc0019f0>

04001a14 <__mulsi3>:
 4001a14:	0005883a 	mov	r2,zero
 4001a18:	20000726 	beq	r4,zero,4001a38 <__mulsi3+0x24>
 4001a1c:	20c0004c 	andi	r3,r4,1
 4001a20:	2008d07a 	srli	r4,r4,1
 4001a24:	18000126 	beq	r3,zero,4001a2c <__mulsi3+0x18>
 4001a28:	1145883a 	add	r2,r2,r5
 4001a2c:	294b883a 	add	r5,r5,r5
 4001a30:	203ffa1e 	bne	r4,zero,4001a1c <__alt_data_end+0xfc001a1c>
 4001a34:	f800283a 	ret
 4001a38:	f800283a 	ret

04001a3c <_fclose_r>:
 4001a3c:	28003926 	beq	r5,zero,4001b24 <_fclose_r+0xe8>
 4001a40:	defffc04 	addi	sp,sp,-16
 4001a44:	dc400115 	stw	r17,4(sp)
 4001a48:	dc000015 	stw	r16,0(sp)
 4001a4c:	dfc00315 	stw	ra,12(sp)
 4001a50:	dc800215 	stw	r18,8(sp)
 4001a54:	2023883a 	mov	r17,r4
 4001a58:	2821883a 	mov	r16,r5
 4001a5c:	20000226 	beq	r4,zero,4001a68 <_fclose_r+0x2c>
 4001a60:	20800e17 	ldw	r2,56(r4)
 4001a64:	10002726 	beq	r2,zero,4001b04 <_fclose_r+0xc8>
 4001a68:	8080030f 	ldh	r2,12(r16)
 4001a6c:	1000071e 	bne	r2,zero,4001a8c <_fclose_r+0x50>
 4001a70:	0005883a 	mov	r2,zero
 4001a74:	dfc00317 	ldw	ra,12(sp)
 4001a78:	dc800217 	ldw	r18,8(sp)
 4001a7c:	dc400117 	ldw	r17,4(sp)
 4001a80:	dc000017 	ldw	r16,0(sp)
 4001a84:	dec00404 	addi	sp,sp,16
 4001a88:	f800283a 	ret
 4001a8c:	800b883a 	mov	r5,r16
 4001a90:	8809883a 	mov	r4,r17
 4001a94:	4001b400 	call	4001b40 <__sflush_r>
 4001a98:	1025883a 	mov	r18,r2
 4001a9c:	80800b17 	ldw	r2,44(r16)
 4001aa0:	10000426 	beq	r2,zero,4001ab4 <_fclose_r+0x78>
 4001aa4:	81400717 	ldw	r5,28(r16)
 4001aa8:	8809883a 	mov	r4,r17
 4001aac:	103ee83a 	callr	r2
 4001ab0:	10001616 	blt	r2,zero,4001b0c <_fclose_r+0xd0>
 4001ab4:	8080030b 	ldhu	r2,12(r16)
 4001ab8:	1080200c 	andi	r2,r2,128
 4001abc:	1000151e 	bne	r2,zero,4001b14 <_fclose_r+0xd8>
 4001ac0:	81400c17 	ldw	r5,48(r16)
 4001ac4:	28000526 	beq	r5,zero,4001adc <_fclose_r+0xa0>
 4001ac8:	80801004 	addi	r2,r16,64
 4001acc:	28800226 	beq	r5,r2,4001ad8 <_fclose_r+0x9c>
 4001ad0:	8809883a 	mov	r4,r17
 4001ad4:	40026380 	call	4002638 <_free_r>
 4001ad8:	80000c15 	stw	zero,48(r16)
 4001adc:	81401117 	ldw	r5,68(r16)
 4001ae0:	28000326 	beq	r5,zero,4001af0 <_fclose_r+0xb4>
 4001ae4:	8809883a 	mov	r4,r17
 4001ae8:	40026380 	call	4002638 <_free_r>
 4001aec:	80001115 	stw	zero,68(r16)
 4001af0:	40021580 	call	4002158 <__sfp_lock_acquire>
 4001af4:	8000030d 	sth	zero,12(r16)
 4001af8:	400215c0 	call	400215c <__sfp_lock_release>
 4001afc:	9005883a 	mov	r2,r18
 4001b00:	003fdc06 	br	4001a74 <__alt_data_end+0xfc001a74>
 4001b04:	40021480 	call	4002148 <__sinit>
 4001b08:	003fd706 	br	4001a68 <__alt_data_end+0xfc001a68>
 4001b0c:	04bfffc4 	movi	r18,-1
 4001b10:	003fe806 	br	4001ab4 <__alt_data_end+0xfc001ab4>
 4001b14:	81400417 	ldw	r5,16(r16)
 4001b18:	8809883a 	mov	r4,r17
 4001b1c:	40026380 	call	4002638 <_free_r>
 4001b20:	003fe706 	br	4001ac0 <__alt_data_end+0xfc001ac0>
 4001b24:	0005883a 	mov	r2,zero
 4001b28:	f800283a 	ret

04001b2c <fclose>:
 4001b2c:	008100b4 	movhi	r2,1026
 4001b30:	10a8dd04 	addi	r2,r2,-23692
 4001b34:	200b883a 	mov	r5,r4
 4001b38:	11000017 	ldw	r4,0(r2)
 4001b3c:	4001a3c1 	jmpi	4001a3c <_fclose_r>

04001b40 <__sflush_r>:
 4001b40:	2880030b 	ldhu	r2,12(r5)
 4001b44:	defffb04 	addi	sp,sp,-20
 4001b48:	dcc00315 	stw	r19,12(sp)
 4001b4c:	dc400115 	stw	r17,4(sp)
 4001b50:	dfc00415 	stw	ra,16(sp)
 4001b54:	dc800215 	stw	r18,8(sp)
 4001b58:	dc000015 	stw	r16,0(sp)
 4001b5c:	10c0020c 	andi	r3,r2,8
 4001b60:	2823883a 	mov	r17,r5
 4001b64:	2027883a 	mov	r19,r4
 4001b68:	1800311e 	bne	r3,zero,4001c30 <__sflush_r+0xf0>
 4001b6c:	28c00117 	ldw	r3,4(r5)
 4001b70:	10820014 	ori	r2,r2,2048
 4001b74:	2880030d 	sth	r2,12(r5)
 4001b78:	00c04b0e 	bge	zero,r3,4001ca8 <__sflush_r+0x168>
 4001b7c:	8a000a17 	ldw	r8,40(r17)
 4001b80:	40002326 	beq	r8,zero,4001c10 <__sflush_r+0xd0>
 4001b84:	9c000017 	ldw	r16,0(r19)
 4001b88:	10c4000c 	andi	r3,r2,4096
 4001b8c:	98000015 	stw	zero,0(r19)
 4001b90:	18004826 	beq	r3,zero,4001cb4 <__sflush_r+0x174>
 4001b94:	89801417 	ldw	r6,80(r17)
 4001b98:	10c0010c 	andi	r3,r2,4
 4001b9c:	18000626 	beq	r3,zero,4001bb8 <__sflush_r+0x78>
 4001ba0:	88c00117 	ldw	r3,4(r17)
 4001ba4:	88800c17 	ldw	r2,48(r17)
 4001ba8:	30cdc83a 	sub	r6,r6,r3
 4001bac:	10000226 	beq	r2,zero,4001bb8 <__sflush_r+0x78>
 4001bb0:	88800f17 	ldw	r2,60(r17)
 4001bb4:	308dc83a 	sub	r6,r6,r2
 4001bb8:	89400717 	ldw	r5,28(r17)
 4001bbc:	000f883a 	mov	r7,zero
 4001bc0:	9809883a 	mov	r4,r19
 4001bc4:	403ee83a 	callr	r8
 4001bc8:	00ffffc4 	movi	r3,-1
 4001bcc:	10c04426 	beq	r2,r3,4001ce0 <__sflush_r+0x1a0>
 4001bd0:	88c0030b 	ldhu	r3,12(r17)
 4001bd4:	89000417 	ldw	r4,16(r17)
 4001bd8:	88000115 	stw	zero,4(r17)
 4001bdc:	197dffcc 	andi	r5,r3,63487
 4001be0:	8940030d 	sth	r5,12(r17)
 4001be4:	89000015 	stw	r4,0(r17)
 4001be8:	18c4000c 	andi	r3,r3,4096
 4001bec:	18002c1e 	bne	r3,zero,4001ca0 <__sflush_r+0x160>
 4001bf0:	89400c17 	ldw	r5,48(r17)
 4001bf4:	9c000015 	stw	r16,0(r19)
 4001bf8:	28000526 	beq	r5,zero,4001c10 <__sflush_r+0xd0>
 4001bfc:	88801004 	addi	r2,r17,64
 4001c00:	28800226 	beq	r5,r2,4001c0c <__sflush_r+0xcc>
 4001c04:	9809883a 	mov	r4,r19
 4001c08:	40026380 	call	4002638 <_free_r>
 4001c0c:	88000c15 	stw	zero,48(r17)
 4001c10:	0005883a 	mov	r2,zero
 4001c14:	dfc00417 	ldw	ra,16(sp)
 4001c18:	dcc00317 	ldw	r19,12(sp)
 4001c1c:	dc800217 	ldw	r18,8(sp)
 4001c20:	dc400117 	ldw	r17,4(sp)
 4001c24:	dc000017 	ldw	r16,0(sp)
 4001c28:	dec00504 	addi	sp,sp,20
 4001c2c:	f800283a 	ret
 4001c30:	2c800417 	ldw	r18,16(r5)
 4001c34:	903ff626 	beq	r18,zero,4001c10 <__alt_data_end+0xfc001c10>
 4001c38:	2c000017 	ldw	r16,0(r5)
 4001c3c:	108000cc 	andi	r2,r2,3
 4001c40:	2c800015 	stw	r18,0(r5)
 4001c44:	84a1c83a 	sub	r16,r16,r18
 4001c48:	1000131e 	bne	r2,zero,4001c98 <__sflush_r+0x158>
 4001c4c:	28800517 	ldw	r2,20(r5)
 4001c50:	88800215 	stw	r2,8(r17)
 4001c54:	04000316 	blt	zero,r16,4001c64 <__sflush_r+0x124>
 4001c58:	003fed06 	br	4001c10 <__alt_data_end+0xfc001c10>
 4001c5c:	90a5883a 	add	r18,r18,r2
 4001c60:	043feb0e 	bge	zero,r16,4001c10 <__alt_data_end+0xfc001c10>
 4001c64:	88800917 	ldw	r2,36(r17)
 4001c68:	89400717 	ldw	r5,28(r17)
 4001c6c:	800f883a 	mov	r7,r16
 4001c70:	900d883a 	mov	r6,r18
 4001c74:	9809883a 	mov	r4,r19
 4001c78:	103ee83a 	callr	r2
 4001c7c:	80a1c83a 	sub	r16,r16,r2
 4001c80:	00bff616 	blt	zero,r2,4001c5c <__alt_data_end+0xfc001c5c>
 4001c84:	88c0030b 	ldhu	r3,12(r17)
 4001c88:	00bfffc4 	movi	r2,-1
 4001c8c:	18c01014 	ori	r3,r3,64
 4001c90:	88c0030d 	sth	r3,12(r17)
 4001c94:	003fdf06 	br	4001c14 <__alt_data_end+0xfc001c14>
 4001c98:	0005883a 	mov	r2,zero
 4001c9c:	003fec06 	br	4001c50 <__alt_data_end+0xfc001c50>
 4001ca0:	88801415 	stw	r2,80(r17)
 4001ca4:	003fd206 	br	4001bf0 <__alt_data_end+0xfc001bf0>
 4001ca8:	28c00f17 	ldw	r3,60(r5)
 4001cac:	00ffb316 	blt	zero,r3,4001b7c <__alt_data_end+0xfc001b7c>
 4001cb0:	003fd706 	br	4001c10 <__alt_data_end+0xfc001c10>
 4001cb4:	89400717 	ldw	r5,28(r17)
 4001cb8:	000d883a 	mov	r6,zero
 4001cbc:	01c00044 	movi	r7,1
 4001cc0:	9809883a 	mov	r4,r19
 4001cc4:	403ee83a 	callr	r8
 4001cc8:	100d883a 	mov	r6,r2
 4001ccc:	00bfffc4 	movi	r2,-1
 4001cd0:	30801426 	beq	r6,r2,4001d24 <__sflush_r+0x1e4>
 4001cd4:	8880030b 	ldhu	r2,12(r17)
 4001cd8:	8a000a17 	ldw	r8,40(r17)
 4001cdc:	003fae06 	br	4001b98 <__alt_data_end+0xfc001b98>
 4001ce0:	98c00017 	ldw	r3,0(r19)
 4001ce4:	183fba26 	beq	r3,zero,4001bd0 <__alt_data_end+0xfc001bd0>
 4001ce8:	01000744 	movi	r4,29
 4001cec:	19000626 	beq	r3,r4,4001d08 <__sflush_r+0x1c8>
 4001cf0:	01000584 	movi	r4,22
 4001cf4:	19000426 	beq	r3,r4,4001d08 <__sflush_r+0x1c8>
 4001cf8:	88c0030b 	ldhu	r3,12(r17)
 4001cfc:	18c01014 	ori	r3,r3,64
 4001d00:	88c0030d 	sth	r3,12(r17)
 4001d04:	003fc306 	br	4001c14 <__alt_data_end+0xfc001c14>
 4001d08:	8880030b 	ldhu	r2,12(r17)
 4001d0c:	88c00417 	ldw	r3,16(r17)
 4001d10:	88000115 	stw	zero,4(r17)
 4001d14:	10bdffcc 	andi	r2,r2,63487
 4001d18:	8880030d 	sth	r2,12(r17)
 4001d1c:	88c00015 	stw	r3,0(r17)
 4001d20:	003fb306 	br	4001bf0 <__alt_data_end+0xfc001bf0>
 4001d24:	98800017 	ldw	r2,0(r19)
 4001d28:	103fea26 	beq	r2,zero,4001cd4 <__alt_data_end+0xfc001cd4>
 4001d2c:	00c00744 	movi	r3,29
 4001d30:	10c00226 	beq	r2,r3,4001d3c <__sflush_r+0x1fc>
 4001d34:	00c00584 	movi	r3,22
 4001d38:	10c0031e 	bne	r2,r3,4001d48 <__sflush_r+0x208>
 4001d3c:	9c000015 	stw	r16,0(r19)
 4001d40:	0005883a 	mov	r2,zero
 4001d44:	003fb306 	br	4001c14 <__alt_data_end+0xfc001c14>
 4001d48:	88c0030b 	ldhu	r3,12(r17)
 4001d4c:	3005883a 	mov	r2,r6
 4001d50:	18c01014 	ori	r3,r3,64
 4001d54:	88c0030d 	sth	r3,12(r17)
 4001d58:	003fae06 	br	4001c14 <__alt_data_end+0xfc001c14>

04001d5c <_fflush_r>:
 4001d5c:	defffd04 	addi	sp,sp,-12
 4001d60:	dc000115 	stw	r16,4(sp)
 4001d64:	dfc00215 	stw	ra,8(sp)
 4001d68:	2021883a 	mov	r16,r4
 4001d6c:	20000226 	beq	r4,zero,4001d78 <_fflush_r+0x1c>
 4001d70:	20800e17 	ldw	r2,56(r4)
 4001d74:	10000c26 	beq	r2,zero,4001da8 <_fflush_r+0x4c>
 4001d78:	2880030f 	ldh	r2,12(r5)
 4001d7c:	1000051e 	bne	r2,zero,4001d94 <_fflush_r+0x38>
 4001d80:	0005883a 	mov	r2,zero
 4001d84:	dfc00217 	ldw	ra,8(sp)
 4001d88:	dc000117 	ldw	r16,4(sp)
 4001d8c:	dec00304 	addi	sp,sp,12
 4001d90:	f800283a 	ret
 4001d94:	8009883a 	mov	r4,r16
 4001d98:	dfc00217 	ldw	ra,8(sp)
 4001d9c:	dc000117 	ldw	r16,4(sp)
 4001da0:	dec00304 	addi	sp,sp,12
 4001da4:	4001b401 	jmpi	4001b40 <__sflush_r>
 4001da8:	d9400015 	stw	r5,0(sp)
 4001dac:	40021480 	call	4002148 <__sinit>
 4001db0:	d9400017 	ldw	r5,0(sp)
 4001db4:	003ff006 	br	4001d78 <__alt_data_end+0xfc001d78>

04001db8 <fflush>:
 4001db8:	20000526 	beq	r4,zero,4001dd0 <fflush+0x18>
 4001dbc:	008100b4 	movhi	r2,1026
 4001dc0:	10a8dd04 	addi	r2,r2,-23692
 4001dc4:	200b883a 	mov	r5,r4
 4001dc8:	11000017 	ldw	r4,0(r2)
 4001dcc:	4001d5c1 	jmpi	4001d5c <_fflush_r>
 4001dd0:	008100b4 	movhi	r2,1026
 4001dd4:	10a8dc04 	addi	r2,r2,-23696
 4001dd8:	11000017 	ldw	r4,0(r2)
 4001ddc:	01410034 	movhi	r5,1024
 4001de0:	29475704 	addi	r5,r5,7516
 4001de4:	4002ee81 	jmpi	4002ee8 <_fwalk_reent>

04001de8 <__fp_unlock>:
 4001de8:	0005883a 	mov	r2,zero
 4001dec:	f800283a 	ret

04001df0 <_cleanup_r>:
 4001df0:	01410034 	movhi	r5,1024
 4001df4:	29468f04 	addi	r5,r5,6716
 4001df8:	4002ee81 	jmpi	4002ee8 <_fwalk_reent>

04001dfc <__sinit.part.1>:
 4001dfc:	defff704 	addi	sp,sp,-36
 4001e00:	00c10034 	movhi	r3,1024
 4001e04:	dfc00815 	stw	ra,32(sp)
 4001e08:	ddc00715 	stw	r23,28(sp)
 4001e0c:	dd800615 	stw	r22,24(sp)
 4001e10:	dd400515 	stw	r21,20(sp)
 4001e14:	dd000415 	stw	r20,16(sp)
 4001e18:	dcc00315 	stw	r19,12(sp)
 4001e1c:	dc800215 	stw	r18,8(sp)
 4001e20:	dc400115 	stw	r17,4(sp)
 4001e24:	dc000015 	stw	r16,0(sp)
 4001e28:	18c77c04 	addi	r3,r3,7664
 4001e2c:	24000117 	ldw	r16,4(r4)
 4001e30:	20c00f15 	stw	r3,60(r4)
 4001e34:	2080bb04 	addi	r2,r4,748
 4001e38:	00c000c4 	movi	r3,3
 4001e3c:	20c0b915 	stw	r3,740(r4)
 4001e40:	2080ba15 	stw	r2,744(r4)
 4001e44:	2000b815 	stw	zero,736(r4)
 4001e48:	05c00204 	movi	r23,8
 4001e4c:	00800104 	movi	r2,4
 4001e50:	2025883a 	mov	r18,r4
 4001e54:	b80d883a 	mov	r6,r23
 4001e58:	81001704 	addi	r4,r16,92
 4001e5c:	000b883a 	mov	r5,zero
 4001e60:	80000015 	stw	zero,0(r16)
 4001e64:	80000115 	stw	zero,4(r16)
 4001e68:	80000215 	stw	zero,8(r16)
 4001e6c:	8080030d 	sth	r2,12(r16)
 4001e70:	80001915 	stw	zero,100(r16)
 4001e74:	8000038d 	sth	zero,14(r16)
 4001e78:	80000415 	stw	zero,16(r16)
 4001e7c:	80000515 	stw	zero,20(r16)
 4001e80:	80000615 	stw	zero,24(r16)
 4001e84:	4003cec0 	call	4003cec <memset>
 4001e88:	05810034 	movhi	r22,1024
 4001e8c:	94400217 	ldw	r17,8(r18)
 4001e90:	05410034 	movhi	r21,1024
 4001e94:	05010034 	movhi	r20,1024
 4001e98:	04c10034 	movhi	r19,1024
 4001e9c:	b590a004 	addi	r22,r22,17024
 4001ea0:	ad50b704 	addi	r21,r21,17116
 4001ea4:	a510d604 	addi	r20,r20,17240
 4001ea8:	9cd0ed04 	addi	r19,r19,17332
 4001eac:	85800815 	stw	r22,32(r16)
 4001eb0:	85400915 	stw	r21,36(r16)
 4001eb4:	85000a15 	stw	r20,40(r16)
 4001eb8:	84c00b15 	stw	r19,44(r16)
 4001ebc:	84000715 	stw	r16,28(r16)
 4001ec0:	00800284 	movi	r2,10
 4001ec4:	8880030d 	sth	r2,12(r17)
 4001ec8:	00800044 	movi	r2,1
 4001ecc:	b80d883a 	mov	r6,r23
 4001ed0:	89001704 	addi	r4,r17,92
 4001ed4:	000b883a 	mov	r5,zero
 4001ed8:	88000015 	stw	zero,0(r17)
 4001edc:	88000115 	stw	zero,4(r17)
 4001ee0:	88000215 	stw	zero,8(r17)
 4001ee4:	88001915 	stw	zero,100(r17)
 4001ee8:	8880038d 	sth	r2,14(r17)
 4001eec:	88000415 	stw	zero,16(r17)
 4001ef0:	88000515 	stw	zero,20(r17)
 4001ef4:	88000615 	stw	zero,24(r17)
 4001ef8:	4003cec0 	call	4003cec <memset>
 4001efc:	94000317 	ldw	r16,12(r18)
 4001f00:	00800484 	movi	r2,18
 4001f04:	8c400715 	stw	r17,28(r17)
 4001f08:	8d800815 	stw	r22,32(r17)
 4001f0c:	8d400915 	stw	r21,36(r17)
 4001f10:	8d000a15 	stw	r20,40(r17)
 4001f14:	8cc00b15 	stw	r19,44(r17)
 4001f18:	8080030d 	sth	r2,12(r16)
 4001f1c:	00800084 	movi	r2,2
 4001f20:	80000015 	stw	zero,0(r16)
 4001f24:	80000115 	stw	zero,4(r16)
 4001f28:	80000215 	stw	zero,8(r16)
 4001f2c:	80001915 	stw	zero,100(r16)
 4001f30:	8080038d 	sth	r2,14(r16)
 4001f34:	80000415 	stw	zero,16(r16)
 4001f38:	80000515 	stw	zero,20(r16)
 4001f3c:	80000615 	stw	zero,24(r16)
 4001f40:	b80d883a 	mov	r6,r23
 4001f44:	000b883a 	mov	r5,zero
 4001f48:	81001704 	addi	r4,r16,92
 4001f4c:	4003cec0 	call	4003cec <memset>
 4001f50:	00800044 	movi	r2,1
 4001f54:	84000715 	stw	r16,28(r16)
 4001f58:	85800815 	stw	r22,32(r16)
 4001f5c:	85400915 	stw	r21,36(r16)
 4001f60:	85000a15 	stw	r20,40(r16)
 4001f64:	84c00b15 	stw	r19,44(r16)
 4001f68:	90800e15 	stw	r2,56(r18)
 4001f6c:	dfc00817 	ldw	ra,32(sp)
 4001f70:	ddc00717 	ldw	r23,28(sp)
 4001f74:	dd800617 	ldw	r22,24(sp)
 4001f78:	dd400517 	ldw	r21,20(sp)
 4001f7c:	dd000417 	ldw	r20,16(sp)
 4001f80:	dcc00317 	ldw	r19,12(sp)
 4001f84:	dc800217 	ldw	r18,8(sp)
 4001f88:	dc400117 	ldw	r17,4(sp)
 4001f8c:	dc000017 	ldw	r16,0(sp)
 4001f90:	dec00904 	addi	sp,sp,36
 4001f94:	f800283a 	ret

04001f98 <__fp_lock>:
 4001f98:	0005883a 	mov	r2,zero
 4001f9c:	f800283a 	ret

04001fa0 <__sfmoreglue>:
 4001fa0:	defffc04 	addi	sp,sp,-16
 4001fa4:	dc800215 	stw	r18,8(sp)
 4001fa8:	2825883a 	mov	r18,r5
 4001fac:	dc000015 	stw	r16,0(sp)
 4001fb0:	01401a04 	movi	r5,104
 4001fb4:	2021883a 	mov	r16,r4
 4001fb8:	913fffc4 	addi	r4,r18,-1
 4001fbc:	dfc00315 	stw	ra,12(sp)
 4001fc0:	dc400115 	stw	r17,4(sp)
 4001fc4:	4001a140 	call	4001a14 <__mulsi3>
 4001fc8:	8009883a 	mov	r4,r16
 4001fcc:	11401d04 	addi	r5,r2,116
 4001fd0:	1023883a 	mov	r17,r2
 4001fd4:	40033980 	call	4003398 <_malloc_r>
 4001fd8:	1021883a 	mov	r16,r2
 4001fdc:	10000726 	beq	r2,zero,4001ffc <__sfmoreglue+0x5c>
 4001fe0:	11000304 	addi	r4,r2,12
 4001fe4:	10000015 	stw	zero,0(r2)
 4001fe8:	14800115 	stw	r18,4(r2)
 4001fec:	11000215 	stw	r4,8(r2)
 4001ff0:	89801a04 	addi	r6,r17,104
 4001ff4:	000b883a 	mov	r5,zero
 4001ff8:	4003cec0 	call	4003cec <memset>
 4001ffc:	8005883a 	mov	r2,r16
 4002000:	dfc00317 	ldw	ra,12(sp)
 4002004:	dc800217 	ldw	r18,8(sp)
 4002008:	dc400117 	ldw	r17,4(sp)
 400200c:	dc000017 	ldw	r16,0(sp)
 4002010:	dec00404 	addi	sp,sp,16
 4002014:	f800283a 	ret

04002018 <__sfp>:
 4002018:	defffb04 	addi	sp,sp,-20
 400201c:	dc000015 	stw	r16,0(sp)
 4002020:	040100b4 	movhi	r16,1026
 4002024:	8428dc04 	addi	r16,r16,-23696
 4002028:	dcc00315 	stw	r19,12(sp)
 400202c:	2027883a 	mov	r19,r4
 4002030:	81000017 	ldw	r4,0(r16)
 4002034:	dfc00415 	stw	ra,16(sp)
 4002038:	dc800215 	stw	r18,8(sp)
 400203c:	20800e17 	ldw	r2,56(r4)
 4002040:	dc400115 	stw	r17,4(sp)
 4002044:	1000021e 	bne	r2,zero,4002050 <__sfp+0x38>
 4002048:	4001dfc0 	call	4001dfc <__sinit.part.1>
 400204c:	81000017 	ldw	r4,0(r16)
 4002050:	2480b804 	addi	r18,r4,736
 4002054:	047fffc4 	movi	r17,-1
 4002058:	91000117 	ldw	r4,4(r18)
 400205c:	94000217 	ldw	r16,8(r18)
 4002060:	213fffc4 	addi	r4,r4,-1
 4002064:	20000a16 	blt	r4,zero,4002090 <__sfp+0x78>
 4002068:	8080030f 	ldh	r2,12(r16)
 400206c:	10000c26 	beq	r2,zero,40020a0 <__sfp+0x88>
 4002070:	80c01d04 	addi	r3,r16,116
 4002074:	00000206 	br	4002080 <__sfp+0x68>
 4002078:	18bfe60f 	ldh	r2,-104(r3)
 400207c:	10000826 	beq	r2,zero,40020a0 <__sfp+0x88>
 4002080:	213fffc4 	addi	r4,r4,-1
 4002084:	1c3ffd04 	addi	r16,r3,-12
 4002088:	18c01a04 	addi	r3,r3,104
 400208c:	247ffa1e 	bne	r4,r17,4002078 <__alt_data_end+0xfc002078>
 4002090:	90800017 	ldw	r2,0(r18)
 4002094:	10001d26 	beq	r2,zero,400210c <__sfp+0xf4>
 4002098:	1025883a 	mov	r18,r2
 400209c:	003fee06 	br	4002058 <__alt_data_end+0xfc002058>
 40020a0:	00bfffc4 	movi	r2,-1
 40020a4:	8080038d 	sth	r2,14(r16)
 40020a8:	00800044 	movi	r2,1
 40020ac:	8080030d 	sth	r2,12(r16)
 40020b0:	80001915 	stw	zero,100(r16)
 40020b4:	80000015 	stw	zero,0(r16)
 40020b8:	80000215 	stw	zero,8(r16)
 40020bc:	80000115 	stw	zero,4(r16)
 40020c0:	80000415 	stw	zero,16(r16)
 40020c4:	80000515 	stw	zero,20(r16)
 40020c8:	80000615 	stw	zero,24(r16)
 40020cc:	01800204 	movi	r6,8
 40020d0:	000b883a 	mov	r5,zero
 40020d4:	81001704 	addi	r4,r16,92
 40020d8:	4003cec0 	call	4003cec <memset>
 40020dc:	8005883a 	mov	r2,r16
 40020e0:	80000c15 	stw	zero,48(r16)
 40020e4:	80000d15 	stw	zero,52(r16)
 40020e8:	80001115 	stw	zero,68(r16)
 40020ec:	80001215 	stw	zero,72(r16)
 40020f0:	dfc00417 	ldw	ra,16(sp)
 40020f4:	dcc00317 	ldw	r19,12(sp)
 40020f8:	dc800217 	ldw	r18,8(sp)
 40020fc:	dc400117 	ldw	r17,4(sp)
 4002100:	dc000017 	ldw	r16,0(sp)
 4002104:	dec00504 	addi	sp,sp,20
 4002108:	f800283a 	ret
 400210c:	01400104 	movi	r5,4
 4002110:	9809883a 	mov	r4,r19
 4002114:	4001fa00 	call	4001fa0 <__sfmoreglue>
 4002118:	90800015 	stw	r2,0(r18)
 400211c:	103fde1e 	bne	r2,zero,4002098 <__alt_data_end+0xfc002098>
 4002120:	00800304 	movi	r2,12
 4002124:	98800015 	stw	r2,0(r19)
 4002128:	0005883a 	mov	r2,zero
 400212c:	003ff006 	br	40020f0 <__alt_data_end+0xfc0020f0>

04002130 <_cleanup>:
 4002130:	008100b4 	movhi	r2,1026
 4002134:	10a8dc04 	addi	r2,r2,-23696
 4002138:	11000017 	ldw	r4,0(r2)
 400213c:	01410034 	movhi	r5,1024
 4002140:	29468f04 	addi	r5,r5,6716
 4002144:	4002ee81 	jmpi	4002ee8 <_fwalk_reent>

04002148 <__sinit>:
 4002148:	20800e17 	ldw	r2,56(r4)
 400214c:	10000126 	beq	r2,zero,4002154 <__sinit+0xc>
 4002150:	f800283a 	ret
 4002154:	4001dfc1 	jmpi	4001dfc <__sinit.part.1>

04002158 <__sfp_lock_acquire>:
 4002158:	f800283a 	ret

0400215c <__sfp_lock_release>:
 400215c:	f800283a 	ret

04002160 <__sinit_lock_acquire>:
 4002160:	f800283a 	ret

04002164 <__sinit_lock_release>:
 4002164:	f800283a 	ret

04002168 <__fp_lock_all>:
 4002168:	008100b4 	movhi	r2,1026
 400216c:	10a8dd04 	addi	r2,r2,-23692
 4002170:	11000017 	ldw	r4,0(r2)
 4002174:	01410034 	movhi	r5,1024
 4002178:	2947e604 	addi	r5,r5,8088
 400217c:	4002e241 	jmpi	4002e24 <_fwalk>

04002180 <__fp_unlock_all>:
 4002180:	008100b4 	movhi	r2,1026
 4002184:	10a8dd04 	addi	r2,r2,-23692
 4002188:	11000017 	ldw	r4,0(r2)
 400218c:	01410034 	movhi	r5,1024
 4002190:	29477a04 	addi	r5,r5,7656
 4002194:	4002e241 	jmpi	4002e24 <_fwalk>

04002198 <_fopen_r>:
 4002198:	defffa04 	addi	sp,sp,-24
 400219c:	3005883a 	mov	r2,r6
 40021a0:	dcc00415 	stw	r19,16(sp)
 40021a4:	d80d883a 	mov	r6,sp
 40021a8:	2827883a 	mov	r19,r5
 40021ac:	100b883a 	mov	r5,r2
 40021b0:	dc800315 	stw	r18,12(sp)
 40021b4:	dfc00515 	stw	ra,20(sp)
 40021b8:	dc400215 	stw	r17,8(sp)
 40021bc:	dc000115 	stw	r16,4(sp)
 40021c0:	2025883a 	mov	r18,r4
 40021c4:	40062fc0 	call	40062fc <__sflags>
 40021c8:	10002726 	beq	r2,zero,4002268 <_fopen_r+0xd0>
 40021cc:	9009883a 	mov	r4,r18
 40021d0:	1023883a 	mov	r17,r2
 40021d4:	40020180 	call	4002018 <__sfp>
 40021d8:	1021883a 	mov	r16,r2
 40021dc:	10002226 	beq	r2,zero,4002268 <_fopen_r+0xd0>
 40021e0:	d9800017 	ldw	r6,0(sp)
 40021e4:	01c06d84 	movi	r7,438
 40021e8:	980b883a 	mov	r5,r19
 40021ec:	9009883a 	mov	r4,r18
 40021f0:	4003e140 	call	4003e14 <_open_r>
 40021f4:	10001916 	blt	r2,zero,400225c <_fopen_r+0xc4>
 40021f8:	8080038d 	sth	r2,14(r16)
 40021fc:	00810034 	movhi	r2,1024
 4002200:	1090a004 	addi	r2,r2,17024
 4002204:	80800815 	stw	r2,32(r16)
 4002208:	00810034 	movhi	r2,1024
 400220c:	1090b704 	addi	r2,r2,17116
 4002210:	80800915 	stw	r2,36(r16)
 4002214:	00810034 	movhi	r2,1024
 4002218:	1090d604 	addi	r2,r2,17240
 400221c:	80800a15 	stw	r2,40(r16)
 4002220:	00810034 	movhi	r2,1024
 4002224:	1090ed04 	addi	r2,r2,17332
 4002228:	8440030d 	sth	r17,12(r16)
 400222c:	84000715 	stw	r16,28(r16)
 4002230:	80800b15 	stw	r2,44(r16)
 4002234:	8c40400c 	andi	r17,r17,256
 4002238:	88000d1e 	bne	r17,zero,4002270 <_fopen_r+0xd8>
 400223c:	8005883a 	mov	r2,r16
 4002240:	dfc00517 	ldw	ra,20(sp)
 4002244:	dcc00417 	ldw	r19,16(sp)
 4002248:	dc800317 	ldw	r18,12(sp)
 400224c:	dc400217 	ldw	r17,8(sp)
 4002250:	dc000117 	ldw	r16,4(sp)
 4002254:	dec00604 	addi	sp,sp,24
 4002258:	f800283a 	ret
 400225c:	40021580 	call	4002158 <__sfp_lock_acquire>
 4002260:	8000030d 	sth	zero,12(r16)
 4002264:	400215c0 	call	400215c <__sfp_lock_release>
 4002268:	0005883a 	mov	r2,zero
 400226c:	003ff406 	br	4002240 <__alt_data_end+0xfc002240>
 4002270:	01c00084 	movi	r7,2
 4002274:	000d883a 	mov	r6,zero
 4002278:	800b883a 	mov	r5,r16
 400227c:	9009883a 	mov	r4,r18
 4002280:	40029480 	call	4002948 <_fseek_r>
 4002284:	8005883a 	mov	r2,r16
 4002288:	003fed06 	br	4002240 <__alt_data_end+0xfc002240>

0400228c <fopen>:
 400228c:	008100b4 	movhi	r2,1026
 4002290:	10a8dd04 	addi	r2,r2,-23692
 4002294:	280d883a 	mov	r6,r5
 4002298:	200b883a 	mov	r5,r4
 400229c:	11000017 	ldw	r4,0(r2)
 40022a0:	40021981 	jmpi	4002198 <_fopen_r>

040022a4 <_fread_r>:
 40022a4:	defff404 	addi	sp,sp,-48
 40022a8:	dd000615 	stw	r20,24(sp)
 40022ac:	dcc00515 	stw	r19,20(sp)
 40022b0:	2029883a 	mov	r20,r4
 40022b4:	2827883a 	mov	r19,r5
 40022b8:	3809883a 	mov	r4,r7
 40022bc:	300b883a 	mov	r5,r6
 40022c0:	ddc00915 	stw	r23,36(sp)
 40022c4:	dd400715 	stw	r21,28(sp)
 40022c8:	dc000215 	stw	r16,8(sp)
 40022cc:	dfc00b15 	stw	ra,44(sp)
 40022d0:	df000a15 	stw	fp,40(sp)
 40022d4:	dd800815 	stw	r22,32(sp)
 40022d8:	dc800415 	stw	r18,16(sp)
 40022dc:	dc400315 	stw	r17,12(sp)
 40022e0:	302f883a 	mov	r23,r6
 40022e4:	382b883a 	mov	r21,r7
 40022e8:	4001a140 	call	4001a14 <__mulsi3>
 40022ec:	dc000c17 	ldw	r16,48(sp)
 40022f0:	10003826 	beq	r2,zero,40023d4 <_fread_r+0x130>
 40022f4:	102d883a 	mov	r22,r2
 40022f8:	a0000226 	beq	r20,zero,4002304 <_fread_r+0x60>
 40022fc:	a0800e17 	ldw	r2,56(r20)
 4002300:	10006e26 	beq	r2,zero,40024bc <_fread_r+0x218>
 4002304:	8080030b 	ldhu	r2,12(r16)
 4002308:	10c8000c 	andi	r3,r2,8192
 400230c:	1800061e 	bne	r3,zero,4002328 <_fread_r+0x84>
 4002310:	81001917 	ldw	r4,100(r16)
 4002314:	00f7ffc4 	movi	r3,-8193
 4002318:	10880014 	ori	r2,r2,8192
 400231c:	20c6703a 	and	r3,r4,r3
 4002320:	8080030d 	sth	r2,12(r16)
 4002324:	80c01915 	stw	r3,100(r16)
 4002328:	84400117 	ldw	r17,4(r16)
 400232c:	88005f16 	blt	r17,zero,40024ac <_fread_r+0x208>
 4002330:	8809883a 	mov	r4,r17
 4002334:	1080008c 	andi	r2,r2,2
 4002338:	1000281e 	bne	r2,zero,40023dc <_fread_r+0x138>
 400233c:	b025883a 	mov	r18,r22
 4002340:	00000b06 	br	4002370 <_fread_r+0xcc>
 4002344:	4003ba40 	call	4003ba4 <memcpy>
 4002348:	80800017 	ldw	r2,0(r16)
 400234c:	9c67883a 	add	r19,r19,r17
 4002350:	9465c83a 	sub	r18,r18,r17
 4002354:	1463883a 	add	r17,r2,r17
 4002358:	800b883a 	mov	r5,r16
 400235c:	a009883a 	mov	r4,r20
 4002360:	84400015 	stw	r17,0(r16)
 4002364:	4003f640 	call	4003f64 <__srefill_r>
 4002368:	10004c1e 	bne	r2,zero,400249c <_fread_r+0x1f8>
 400236c:	84400117 	ldw	r17,4(r16)
 4002370:	880d883a 	mov	r6,r17
 4002374:	9809883a 	mov	r4,r19
 4002378:	81400017 	ldw	r5,0(r16)
 400237c:	8cbff136 	bltu	r17,r18,4002344 <__alt_data_end+0xfc002344>
 4002380:	900d883a 	mov	r6,r18
 4002384:	4003ba40 	call	4003ba4 <memcpy>
 4002388:	80c00117 	ldw	r3,4(r16)
 400238c:	81000017 	ldw	r4,0(r16)
 4002390:	a805883a 	mov	r2,r21
 4002394:	1c87c83a 	sub	r3,r3,r18
 4002398:	24a5883a 	add	r18,r4,r18
 400239c:	80c00115 	stw	r3,4(r16)
 40023a0:	84800015 	stw	r18,0(r16)
 40023a4:	dfc00b17 	ldw	ra,44(sp)
 40023a8:	df000a17 	ldw	fp,40(sp)
 40023ac:	ddc00917 	ldw	r23,36(sp)
 40023b0:	dd800817 	ldw	r22,32(sp)
 40023b4:	dd400717 	ldw	r21,28(sp)
 40023b8:	dd000617 	ldw	r20,24(sp)
 40023bc:	dcc00517 	ldw	r19,20(sp)
 40023c0:	dc800417 	ldw	r18,16(sp)
 40023c4:	dc400317 	ldw	r17,12(sp)
 40023c8:	dc000217 	ldw	r16,8(sp)
 40023cc:	dec00c04 	addi	sp,sp,48
 40023d0:	f800283a 	ret
 40023d4:	0005883a 	mov	r2,zero
 40023d8:	003ff206 	br	40023a4 <__alt_data_end+0xfc0023a4>
 40023dc:	b007883a 	mov	r3,r22
 40023e0:	2580012e 	bgeu	r4,r22,40023e8 <_fread_r+0x144>
 40023e4:	2007883a 	mov	r3,r4
 40023e8:	81400017 	ldw	r5,0(r16)
 40023ec:	180d883a 	mov	r6,r3
 40023f0:	9809883a 	mov	r4,r19
 40023f4:	d8c00115 	stw	r3,4(sp)
 40023f8:	4003ba40 	call	4003ba4 <memcpy>
 40023fc:	d8c00117 	ldw	r3,4(sp)
 4002400:	84400017 	ldw	r17,0(r16)
 4002404:	80800117 	ldw	r2,4(r16)
 4002408:	81400c17 	ldw	r5,48(r16)
 400240c:	88e3883a 	add	r17,r17,r3
 4002410:	10c5c83a 	sub	r2,r2,r3
 4002414:	84400015 	stw	r17,0(r16)
 4002418:	80800115 	stw	r2,4(r16)
 400241c:	b0e5c83a 	sub	r18,r22,r3
 4002420:	28002c26 	beq	r5,zero,40024d4 <_fread_r+0x230>
 4002424:	90002c26 	beq	r18,zero,40024d8 <_fread_r+0x234>
 4002428:	80801004 	addi	r2,r16,64
 400242c:	28800526 	beq	r5,r2,4002444 <_fread_r+0x1a0>
 4002430:	a009883a 	mov	r4,r20
 4002434:	d8c00115 	stw	r3,4(sp)
 4002438:	40026380 	call	4002638 <_free_r>
 400243c:	d8c00117 	ldw	r3,4(sp)
 4002440:	84400017 	ldw	r17,0(r16)
 4002444:	80000c15 	stw	zero,48(r16)
 4002448:	80800517 	ldw	r2,20(r16)
 400244c:	87000417 	ldw	fp,16(r16)
 4002450:	98e7883a 	add	r19,r19,r3
 4002454:	d8800015 	stw	r2,0(sp)
 4002458:	00000106 	br	4002460 <_fread_r+0x1bc>
 400245c:	90001e26 	beq	r18,zero,40024d8 <_fread_r+0x234>
 4002460:	84c00415 	stw	r19,16(r16)
 4002464:	84800515 	stw	r18,20(r16)
 4002468:	84c00015 	stw	r19,0(r16)
 400246c:	a009883a 	mov	r4,r20
 4002470:	800b883a 	mov	r5,r16
 4002474:	4003f640 	call	4003f64 <__srefill_r>
 4002478:	d9000017 	ldw	r4,0(sp)
 400247c:	80c00117 	ldw	r3,4(r16)
 4002480:	87000415 	stw	fp,16(r16)
 4002484:	81000515 	stw	r4,20(r16)
 4002488:	84400015 	stw	r17,0(r16)
 400248c:	80000115 	stw	zero,4(r16)
 4002490:	90e5c83a 	sub	r18,r18,r3
 4002494:	98e7883a 	add	r19,r19,r3
 4002498:	103ff026 	beq	r2,zero,400245c <__alt_data_end+0xfc00245c>
 400249c:	b80b883a 	mov	r5,r23
 40024a0:	b489c83a 	sub	r4,r22,r18
 40024a4:	40019580 	call	4001958 <__udivsi3>
 40024a8:	003fbe06 	br	40023a4 <__alt_data_end+0xfc0023a4>
 40024ac:	80000115 	stw	zero,4(r16)
 40024b0:	0009883a 	mov	r4,zero
 40024b4:	0023883a 	mov	r17,zero
 40024b8:	003f9e06 	br	4002334 <__alt_data_end+0xfc002334>
 40024bc:	a009883a 	mov	r4,r20
 40024c0:	40021480 	call	4002148 <__sinit>
 40024c4:	8080030b 	ldhu	r2,12(r16)
 40024c8:	10c8000c 	andi	r3,r2,8192
 40024cc:	183f961e 	bne	r3,zero,4002328 <__alt_data_end+0xfc002328>
 40024d0:	003f8f06 	br	4002310 <__alt_data_end+0xfc002310>
 40024d4:	903fdc1e 	bne	r18,zero,4002448 <__alt_data_end+0xfc002448>
 40024d8:	a805883a 	mov	r2,r21
 40024dc:	003fb106 	br	40023a4 <__alt_data_end+0xfc0023a4>

040024e0 <fread>:
 40024e0:	defffe04 	addi	sp,sp,-8
 40024e4:	008100b4 	movhi	r2,1026
 40024e8:	d9c00015 	stw	r7,0(sp)
 40024ec:	10a8dd04 	addi	r2,r2,-23692
 40024f0:	300f883a 	mov	r7,r6
 40024f4:	280d883a 	mov	r6,r5
 40024f8:	200b883a 	mov	r5,r4
 40024fc:	11000017 	ldw	r4,0(r2)
 4002500:	dfc00115 	stw	ra,4(sp)
 4002504:	40022a40 	call	40022a4 <_fread_r>
 4002508:	dfc00117 	ldw	ra,4(sp)
 400250c:	dec00204 	addi	sp,sp,8
 4002510:	f800283a 	ret

04002514 <_malloc_trim_r>:
 4002514:	defffb04 	addi	sp,sp,-20
 4002518:	dcc00315 	stw	r19,12(sp)
 400251c:	04c100b4 	movhi	r19,1026
 4002520:	dc800215 	stw	r18,8(sp)
 4002524:	dc400115 	stw	r17,4(sp)
 4002528:	dc000015 	stw	r16,0(sp)
 400252c:	dfc00415 	stw	ra,16(sp)
 4002530:	2821883a 	mov	r16,r5
 4002534:	9ce31804 	addi	r19,r19,-29600
 4002538:	2025883a 	mov	r18,r4
 400253c:	40149540 	call	4014954 <__malloc_lock>
 4002540:	98800217 	ldw	r2,8(r19)
 4002544:	14400117 	ldw	r17,4(r2)
 4002548:	00bfff04 	movi	r2,-4
 400254c:	88a2703a 	and	r17,r17,r2
 4002550:	8c21c83a 	sub	r16,r17,r16
 4002554:	8403fbc4 	addi	r16,r16,4079
 4002558:	8020d33a 	srli	r16,r16,12
 400255c:	0083ffc4 	movi	r2,4095
 4002560:	843fffc4 	addi	r16,r16,-1
 4002564:	8020933a 	slli	r16,r16,12
 4002568:	1400060e 	bge	r2,r16,4002584 <_malloc_trim_r+0x70>
 400256c:	000b883a 	mov	r5,zero
 4002570:	9009883a 	mov	r4,r18
 4002574:	40041c00 	call	40041c0 <_sbrk_r>
 4002578:	98c00217 	ldw	r3,8(r19)
 400257c:	1c47883a 	add	r3,r3,r17
 4002580:	10c00a26 	beq	r2,r3,40025ac <_malloc_trim_r+0x98>
 4002584:	9009883a 	mov	r4,r18
 4002588:	40149780 	call	4014978 <__malloc_unlock>
 400258c:	0005883a 	mov	r2,zero
 4002590:	dfc00417 	ldw	ra,16(sp)
 4002594:	dcc00317 	ldw	r19,12(sp)
 4002598:	dc800217 	ldw	r18,8(sp)
 400259c:	dc400117 	ldw	r17,4(sp)
 40025a0:	dc000017 	ldw	r16,0(sp)
 40025a4:	dec00504 	addi	sp,sp,20
 40025a8:	f800283a 	ret
 40025ac:	040bc83a 	sub	r5,zero,r16
 40025b0:	9009883a 	mov	r4,r18
 40025b4:	40041c00 	call	40041c0 <_sbrk_r>
 40025b8:	00ffffc4 	movi	r3,-1
 40025bc:	10c00d26 	beq	r2,r3,40025f4 <_malloc_trim_r+0xe0>
 40025c0:	00c100b4 	movhi	r3,1026
 40025c4:	18f04704 	addi	r3,r3,-16100
 40025c8:	18800017 	ldw	r2,0(r3)
 40025cc:	99000217 	ldw	r4,8(r19)
 40025d0:	8c23c83a 	sub	r17,r17,r16
 40025d4:	8c400054 	ori	r17,r17,1
 40025d8:	1421c83a 	sub	r16,r2,r16
 40025dc:	24400115 	stw	r17,4(r4)
 40025e0:	9009883a 	mov	r4,r18
 40025e4:	1c000015 	stw	r16,0(r3)
 40025e8:	40149780 	call	4014978 <__malloc_unlock>
 40025ec:	00800044 	movi	r2,1
 40025f0:	003fe706 	br	4002590 <__alt_data_end+0xfc002590>
 40025f4:	000b883a 	mov	r5,zero
 40025f8:	9009883a 	mov	r4,r18
 40025fc:	40041c00 	call	40041c0 <_sbrk_r>
 4002600:	99000217 	ldw	r4,8(r19)
 4002604:	014003c4 	movi	r5,15
 4002608:	1107c83a 	sub	r3,r2,r4
 400260c:	28ffdd0e 	bge	r5,r3,4002584 <__alt_data_end+0xfc002584>
 4002610:	014100b4 	movhi	r5,1026
 4002614:	2968de04 	addi	r5,r5,-23688
 4002618:	29400017 	ldw	r5,0(r5)
 400261c:	18c00054 	ori	r3,r3,1
 4002620:	20c00115 	stw	r3,4(r4)
 4002624:	00c100b4 	movhi	r3,1026
 4002628:	1145c83a 	sub	r2,r2,r5
 400262c:	18f04704 	addi	r3,r3,-16100
 4002630:	18800015 	stw	r2,0(r3)
 4002634:	003fd306 	br	4002584 <__alt_data_end+0xfc002584>

04002638 <_free_r>:
 4002638:	28004126 	beq	r5,zero,4002740 <_free_r+0x108>
 400263c:	defffd04 	addi	sp,sp,-12
 4002640:	dc400115 	stw	r17,4(sp)
 4002644:	dc000015 	stw	r16,0(sp)
 4002648:	2023883a 	mov	r17,r4
 400264c:	2821883a 	mov	r16,r5
 4002650:	dfc00215 	stw	ra,8(sp)
 4002654:	40149540 	call	4014954 <__malloc_lock>
 4002658:	81ffff17 	ldw	r7,-4(r16)
 400265c:	00bfff84 	movi	r2,-2
 4002660:	010100b4 	movhi	r4,1026
 4002664:	81bffe04 	addi	r6,r16,-8
 4002668:	3884703a 	and	r2,r7,r2
 400266c:	21231804 	addi	r4,r4,-29600
 4002670:	308b883a 	add	r5,r6,r2
 4002674:	2a400117 	ldw	r9,4(r5)
 4002678:	22000217 	ldw	r8,8(r4)
 400267c:	00ffff04 	movi	r3,-4
 4002680:	48c6703a 	and	r3,r9,r3
 4002684:	2a005726 	beq	r5,r8,40027e4 <_free_r+0x1ac>
 4002688:	28c00115 	stw	r3,4(r5)
 400268c:	39c0004c 	andi	r7,r7,1
 4002690:	3800091e 	bne	r7,zero,40026b8 <_free_r+0x80>
 4002694:	823ffe17 	ldw	r8,-8(r16)
 4002698:	22400204 	addi	r9,r4,8
 400269c:	320dc83a 	sub	r6,r6,r8
 40026a0:	31c00217 	ldw	r7,8(r6)
 40026a4:	1205883a 	add	r2,r2,r8
 40026a8:	3a406526 	beq	r7,r9,4002840 <_free_r+0x208>
 40026ac:	32000317 	ldw	r8,12(r6)
 40026b0:	3a000315 	stw	r8,12(r7)
 40026b4:	41c00215 	stw	r7,8(r8)
 40026b8:	28cf883a 	add	r7,r5,r3
 40026bc:	39c00117 	ldw	r7,4(r7)
 40026c0:	39c0004c 	andi	r7,r7,1
 40026c4:	38003a26 	beq	r7,zero,40027b0 <_free_r+0x178>
 40026c8:	10c00054 	ori	r3,r2,1
 40026cc:	30c00115 	stw	r3,4(r6)
 40026d0:	3087883a 	add	r3,r6,r2
 40026d4:	18800015 	stw	r2,0(r3)
 40026d8:	00c07fc4 	movi	r3,511
 40026dc:	18801936 	bltu	r3,r2,4002744 <_free_r+0x10c>
 40026e0:	1004d0fa 	srli	r2,r2,3
 40026e4:	01c00044 	movi	r7,1
 40026e8:	21400117 	ldw	r5,4(r4)
 40026ec:	10c00044 	addi	r3,r2,1
 40026f0:	18c7883a 	add	r3,r3,r3
 40026f4:	1005d0ba 	srai	r2,r2,2
 40026f8:	18c7883a 	add	r3,r3,r3
 40026fc:	18c7883a 	add	r3,r3,r3
 4002700:	1907883a 	add	r3,r3,r4
 4002704:	3884983a 	sll	r2,r7,r2
 4002708:	19c00017 	ldw	r7,0(r3)
 400270c:	1a3ffe04 	addi	r8,r3,-8
 4002710:	1144b03a 	or	r2,r2,r5
 4002714:	32000315 	stw	r8,12(r6)
 4002718:	31c00215 	stw	r7,8(r6)
 400271c:	20800115 	stw	r2,4(r4)
 4002720:	19800015 	stw	r6,0(r3)
 4002724:	39800315 	stw	r6,12(r7)
 4002728:	8809883a 	mov	r4,r17
 400272c:	dfc00217 	ldw	ra,8(sp)
 4002730:	dc400117 	ldw	r17,4(sp)
 4002734:	dc000017 	ldw	r16,0(sp)
 4002738:	dec00304 	addi	sp,sp,12
 400273c:	40149781 	jmpi	4014978 <__malloc_unlock>
 4002740:	f800283a 	ret
 4002744:	100ad27a 	srli	r5,r2,9
 4002748:	00c00104 	movi	r3,4
 400274c:	19404a36 	bltu	r3,r5,4002878 <_free_r+0x240>
 4002750:	100ad1ba 	srli	r5,r2,6
 4002754:	28c00e44 	addi	r3,r5,57
 4002758:	18c7883a 	add	r3,r3,r3
 400275c:	29400e04 	addi	r5,r5,56
 4002760:	18c7883a 	add	r3,r3,r3
 4002764:	18c7883a 	add	r3,r3,r3
 4002768:	1909883a 	add	r4,r3,r4
 400276c:	20c00017 	ldw	r3,0(r4)
 4002770:	01c100b4 	movhi	r7,1026
 4002774:	213ffe04 	addi	r4,r4,-8
 4002778:	39e31804 	addi	r7,r7,-29600
 400277c:	20c04426 	beq	r4,r3,4002890 <_free_r+0x258>
 4002780:	01ffff04 	movi	r7,-4
 4002784:	19400117 	ldw	r5,4(r3)
 4002788:	29ca703a 	and	r5,r5,r7
 400278c:	1140022e 	bgeu	r2,r5,4002798 <_free_r+0x160>
 4002790:	18c00217 	ldw	r3,8(r3)
 4002794:	20fffb1e 	bne	r4,r3,4002784 <__alt_data_end+0xfc002784>
 4002798:	19000317 	ldw	r4,12(r3)
 400279c:	31000315 	stw	r4,12(r6)
 40027a0:	30c00215 	stw	r3,8(r6)
 40027a4:	21800215 	stw	r6,8(r4)
 40027a8:	19800315 	stw	r6,12(r3)
 40027ac:	003fde06 	br	4002728 <__alt_data_end+0xfc002728>
 40027b0:	29c00217 	ldw	r7,8(r5)
 40027b4:	10c5883a 	add	r2,r2,r3
 40027b8:	00c100b4 	movhi	r3,1026
 40027bc:	18e31a04 	addi	r3,r3,-29592
 40027c0:	38c03b26 	beq	r7,r3,40028b0 <_free_r+0x278>
 40027c4:	2a000317 	ldw	r8,12(r5)
 40027c8:	11400054 	ori	r5,r2,1
 40027cc:	3087883a 	add	r3,r6,r2
 40027d0:	3a000315 	stw	r8,12(r7)
 40027d4:	41c00215 	stw	r7,8(r8)
 40027d8:	31400115 	stw	r5,4(r6)
 40027dc:	18800015 	stw	r2,0(r3)
 40027e0:	003fbd06 	br	40026d8 <__alt_data_end+0xfc0026d8>
 40027e4:	39c0004c 	andi	r7,r7,1
 40027e8:	10c5883a 	add	r2,r2,r3
 40027ec:	3800071e 	bne	r7,zero,400280c <_free_r+0x1d4>
 40027f0:	81fffe17 	ldw	r7,-8(r16)
 40027f4:	31cdc83a 	sub	r6,r6,r7
 40027f8:	30c00317 	ldw	r3,12(r6)
 40027fc:	31400217 	ldw	r5,8(r6)
 4002800:	11c5883a 	add	r2,r2,r7
 4002804:	28c00315 	stw	r3,12(r5)
 4002808:	19400215 	stw	r5,8(r3)
 400280c:	10c00054 	ori	r3,r2,1
 4002810:	30c00115 	stw	r3,4(r6)
 4002814:	00c100b4 	movhi	r3,1026
 4002818:	18e8df04 	addi	r3,r3,-23684
 400281c:	18c00017 	ldw	r3,0(r3)
 4002820:	21800215 	stw	r6,8(r4)
 4002824:	10ffc036 	bltu	r2,r3,4002728 <__alt_data_end+0xfc002728>
 4002828:	008100b4 	movhi	r2,1026
 400282c:	10b03c04 	addi	r2,r2,-16144
 4002830:	11400017 	ldw	r5,0(r2)
 4002834:	8809883a 	mov	r4,r17
 4002838:	40025140 	call	4002514 <_malloc_trim_r>
 400283c:	003fba06 	br	4002728 <__alt_data_end+0xfc002728>
 4002840:	28c9883a 	add	r4,r5,r3
 4002844:	21000117 	ldw	r4,4(r4)
 4002848:	2100004c 	andi	r4,r4,1
 400284c:	2000391e 	bne	r4,zero,4002934 <_free_r+0x2fc>
 4002850:	29c00217 	ldw	r7,8(r5)
 4002854:	29000317 	ldw	r4,12(r5)
 4002858:	1885883a 	add	r2,r3,r2
 400285c:	10c00054 	ori	r3,r2,1
 4002860:	39000315 	stw	r4,12(r7)
 4002864:	21c00215 	stw	r7,8(r4)
 4002868:	30c00115 	stw	r3,4(r6)
 400286c:	308d883a 	add	r6,r6,r2
 4002870:	30800015 	stw	r2,0(r6)
 4002874:	003fac06 	br	4002728 <__alt_data_end+0xfc002728>
 4002878:	00c00504 	movi	r3,20
 400287c:	19401536 	bltu	r3,r5,40028d4 <_free_r+0x29c>
 4002880:	28c01704 	addi	r3,r5,92
 4002884:	18c7883a 	add	r3,r3,r3
 4002888:	294016c4 	addi	r5,r5,91
 400288c:	003fb406 	br	4002760 <__alt_data_end+0xfc002760>
 4002890:	280bd0ba 	srai	r5,r5,2
 4002894:	00c00044 	movi	r3,1
 4002898:	38800117 	ldw	r2,4(r7)
 400289c:	194a983a 	sll	r5,r3,r5
 40028a0:	2007883a 	mov	r3,r4
 40028a4:	2884b03a 	or	r2,r5,r2
 40028a8:	38800115 	stw	r2,4(r7)
 40028ac:	003fbb06 	br	400279c <__alt_data_end+0xfc00279c>
 40028b0:	21800515 	stw	r6,20(r4)
 40028b4:	21800415 	stw	r6,16(r4)
 40028b8:	10c00054 	ori	r3,r2,1
 40028bc:	31c00315 	stw	r7,12(r6)
 40028c0:	31c00215 	stw	r7,8(r6)
 40028c4:	30c00115 	stw	r3,4(r6)
 40028c8:	308d883a 	add	r6,r6,r2
 40028cc:	30800015 	stw	r2,0(r6)
 40028d0:	003f9506 	br	4002728 <__alt_data_end+0xfc002728>
 40028d4:	00c01504 	movi	r3,84
 40028d8:	19400536 	bltu	r3,r5,40028f0 <_free_r+0x2b8>
 40028dc:	100ad33a 	srli	r5,r2,12
 40028e0:	28c01bc4 	addi	r3,r5,111
 40028e4:	18c7883a 	add	r3,r3,r3
 40028e8:	29401b84 	addi	r5,r5,110
 40028ec:	003f9c06 	br	4002760 <__alt_data_end+0xfc002760>
 40028f0:	00c05504 	movi	r3,340
 40028f4:	19400536 	bltu	r3,r5,400290c <_free_r+0x2d4>
 40028f8:	100ad3fa 	srli	r5,r2,15
 40028fc:	28c01e04 	addi	r3,r5,120
 4002900:	18c7883a 	add	r3,r3,r3
 4002904:	29401dc4 	addi	r5,r5,119
 4002908:	003f9506 	br	4002760 <__alt_data_end+0xfc002760>
 400290c:	00c15504 	movi	r3,1364
 4002910:	19400536 	bltu	r3,r5,4002928 <_free_r+0x2f0>
 4002914:	100ad4ba 	srli	r5,r2,18
 4002918:	28c01f44 	addi	r3,r5,125
 400291c:	18c7883a 	add	r3,r3,r3
 4002920:	29401f04 	addi	r5,r5,124
 4002924:	003f8e06 	br	4002760 <__alt_data_end+0xfc002760>
 4002928:	00c03f84 	movi	r3,254
 400292c:	01401f84 	movi	r5,126
 4002930:	003f8b06 	br	4002760 <__alt_data_end+0xfc002760>
 4002934:	10c00054 	ori	r3,r2,1
 4002938:	30c00115 	stw	r3,4(r6)
 400293c:	308d883a 	add	r6,r6,r2
 4002940:	30800015 	stw	r2,0(r6)
 4002944:	003f7806 	br	4002728 <__alt_data_end+0xfc002728>

04002948 <_fseek_r>:
 4002948:	40029681 	jmpi	4002968 <_fseeko_r>

0400294c <fseek>:
 400294c:	008100b4 	movhi	r2,1026
 4002950:	10a8dd04 	addi	r2,r2,-23692
 4002954:	300f883a 	mov	r7,r6
 4002958:	280d883a 	mov	r6,r5
 400295c:	200b883a 	mov	r5,r4
 4002960:	11000017 	ldw	r4,0(r2)
 4002964:	40029681 	jmpi	4002968 <_fseeko_r>

04002968 <_fseeko_r>:
 4002968:	deffe804 	addi	sp,sp,-96
 400296c:	dd401415 	stw	r21,80(sp)
 4002970:	dc801115 	stw	r18,68(sp)
 4002974:	dc401015 	stw	r17,64(sp)
 4002978:	dc000f15 	stw	r16,60(sp)
 400297c:	dfc01715 	stw	ra,92(sp)
 4002980:	ddc01615 	stw	r23,88(sp)
 4002984:	dd801515 	stw	r22,84(sp)
 4002988:	dd001315 	stw	r20,76(sp)
 400298c:	dcc01215 	stw	r19,72(sp)
 4002990:	2023883a 	mov	r17,r4
 4002994:	2821883a 	mov	r16,r5
 4002998:	302b883a 	mov	r21,r6
 400299c:	3825883a 	mov	r18,r7
 40029a0:	20000226 	beq	r4,zero,40029ac <_fseeko_r+0x44>
 40029a4:	20800e17 	ldw	r2,56(r4)
 40029a8:	10005a26 	beq	r2,zero,4002b14 <_fseeko_r+0x1ac>
 40029ac:	8080030b 	ldhu	r2,12(r16)
 40029b0:	00c04204 	movi	r3,264
 40029b4:	1080420c 	andi	r2,r2,264
 40029b8:	10c05b26 	beq	r2,r3,4002b28 <_fseeko_r+0x1c0>
 40029bc:	85000a17 	ldw	r20,40(r16)
 40029c0:	a000f626 	beq	r20,zero,4002d9c <_fseeko_r+0x434>
 40029c4:	00800044 	movi	r2,1
 40029c8:	90803e26 	beq	r18,r2,4002ac4 <_fseeko_r+0x15c>
 40029cc:	00800084 	movi	r2,2
 40029d0:	90801026 	beq	r18,r2,4002a14 <_fseeko_r+0xac>
 40029d4:	90000f26 	beq	r18,zero,4002a14 <_fseeko_r+0xac>
 40029d8:	00800584 	movi	r2,22
 40029dc:	88800015 	stw	r2,0(r17)
 40029e0:	04ffffc4 	movi	r19,-1
 40029e4:	9805883a 	mov	r2,r19
 40029e8:	dfc01717 	ldw	ra,92(sp)
 40029ec:	ddc01617 	ldw	r23,88(sp)
 40029f0:	dd801517 	ldw	r22,84(sp)
 40029f4:	dd401417 	ldw	r21,80(sp)
 40029f8:	dd001317 	ldw	r20,76(sp)
 40029fc:	dcc01217 	ldw	r19,72(sp)
 4002a00:	dc801117 	ldw	r18,68(sp)
 4002a04:	dc401017 	ldw	r17,64(sp)
 4002a08:	dc000f17 	ldw	r16,60(sp)
 4002a0c:	dec01804 	addi	sp,sp,96
 4002a10:	f800283a 	ret
 4002a14:	80800417 	ldw	r2,16(r16)
 4002a18:	002f883a 	mov	r23,zero
 4002a1c:	0027883a 	mov	r19,zero
 4002a20:	1000cb26 	beq	r2,zero,4002d50 <_fseeko_r+0x3e8>
 4002a24:	8080030b 	ldhu	r2,12(r16)
 4002a28:	10c2068c 	andi	r3,r2,2074
 4002a2c:	1800071e 	bne	r3,zero,4002a4c <_fseeko_r+0xe4>
 4002a30:	10c1000c 	andi	r3,r2,1024
 4002a34:	1800451e 	bne	r3,zero,4002b4c <_fseeko_r+0x1e4>
 4002a38:	00c10034 	movhi	r3,1024
 4002a3c:	18d0d604 	addi	r3,r3,17240
 4002a40:	a0c0b726 	beq	r20,r3,4002d20 <_fseeko_r+0x3b8>
 4002a44:	10820014 	ori	r2,r2,2048
 4002a48:	8080030d 	sth	r2,12(r16)
 4002a4c:	800b883a 	mov	r5,r16
 4002a50:	8809883a 	mov	r4,r17
 4002a54:	4001d5c0 	call	4001d5c <_fflush_r>
 4002a58:	1027883a 	mov	r19,r2
 4002a5c:	103fe01e 	bne	r2,zero,40029e0 <__alt_data_end+0xfc0029e0>
 4002a60:	81400717 	ldw	r5,28(r16)
 4002a64:	900f883a 	mov	r7,r18
 4002a68:	a80d883a 	mov	r6,r21
 4002a6c:	8809883a 	mov	r4,r17
 4002a70:	a03ee83a 	callr	r20
 4002a74:	00ffffc4 	movi	r3,-1
 4002a78:	10ffd926 	beq	r2,r3,40029e0 <__alt_data_end+0xfc0029e0>
 4002a7c:	81400c17 	ldw	r5,48(r16)
 4002a80:	28000526 	beq	r5,zero,4002a98 <_fseeko_r+0x130>
 4002a84:	80801004 	addi	r2,r16,64
 4002a88:	28800226 	beq	r5,r2,4002a94 <_fseeko_r+0x12c>
 4002a8c:	8809883a 	mov	r4,r17
 4002a90:	40026380 	call	4002638 <_free_r>
 4002a94:	80000c15 	stw	zero,48(r16)
 4002a98:	8080030b 	ldhu	r2,12(r16)
 4002a9c:	80c00417 	ldw	r3,16(r16)
 4002aa0:	80000115 	stw	zero,4(r16)
 4002aa4:	10bdf7cc 	andi	r2,r2,63455
 4002aa8:	80c00015 	stw	r3,0(r16)
 4002aac:	8080030d 	sth	r2,12(r16)
 4002ab0:	01800204 	movi	r6,8
 4002ab4:	000b883a 	mov	r5,zero
 4002ab8:	81001704 	addi	r4,r16,92
 4002abc:	4003cec0 	call	4003cec <memset>
 4002ac0:	003fc806 	br	40029e4 <__alt_data_end+0xfc0029e4>
 4002ac4:	800b883a 	mov	r5,r16
 4002ac8:	8809883a 	mov	r4,r17
 4002acc:	4001d5c0 	call	4001d5c <_fflush_r>
 4002ad0:	8080030b 	ldhu	r2,12(r16)
 4002ad4:	10c4000c 	andi	r3,r2,4096
 4002ad8:	18008726 	beq	r3,zero,4002cf8 <_fseeko_r+0x390>
 4002adc:	84c01417 	ldw	r19,80(r16)
 4002ae0:	10c0010c 	andi	r3,r2,4
 4002ae4:	1800431e 	bne	r3,zero,4002bf4 <_fseeko_r+0x28c>
 4002ae8:	1080020c 	andi	r2,r2,8
 4002aec:	10008026 	beq	r2,zero,4002cf0 <_fseeko_r+0x388>
 4002af0:	80c00017 	ldw	r3,0(r16)
 4002af4:	80800417 	ldw	r2,16(r16)
 4002af8:	18000226 	beq	r3,zero,4002b04 <_fseeko_r+0x19c>
 4002afc:	1887c83a 	sub	r3,r3,r2
 4002b00:	98e7883a 	add	r19,r19,r3
 4002b04:	aceb883a 	add	r21,r21,r19
 4002b08:	05c00044 	movi	r23,1
 4002b0c:	0025883a 	mov	r18,zero
 4002b10:	003fc306 	br	4002a20 <__alt_data_end+0xfc002a20>
 4002b14:	40021480 	call	4002148 <__sinit>
 4002b18:	8080030b 	ldhu	r2,12(r16)
 4002b1c:	00c04204 	movi	r3,264
 4002b20:	1080420c 	andi	r2,r2,264
 4002b24:	10ffa51e 	bne	r2,r3,40029bc <__alt_data_end+0xfc0029bc>
 4002b28:	800b883a 	mov	r5,r16
 4002b2c:	8809883a 	mov	r4,r17
 4002b30:	4001d5c0 	call	4001d5c <_fflush_r>
 4002b34:	003fa106 	br	40029bc <__alt_data_end+0xfc0029bc>
 4002b38:	8080030b 	ldhu	r2,12(r16)
 4002b3c:	00c10004 	movi	r3,1024
 4002b40:	80c01315 	stw	r3,76(r16)
 4002b44:	10c4b03a 	or	r2,r2,r3
 4002b48:	8080030d 	sth	r2,12(r16)
 4002b4c:	9000311e 	bne	r18,zero,4002c14 <_fseeko_r+0x2ac>
 4002b50:	a82d883a 	mov	r22,r21
 4002b54:	b800371e 	bne	r23,zero,4002c34 <_fseeko_r+0x2cc>
 4002b58:	8080030b 	ldhu	r2,12(r16)
 4002b5c:	1084000c 	andi	r2,r2,4096
 4002b60:	10007f26 	beq	r2,zero,4002d60 <_fseeko_r+0x3f8>
 4002b64:	80801417 	ldw	r2,80(r16)
 4002b68:	81800117 	ldw	r6,4(r16)
 4002b6c:	81400c17 	ldw	r5,48(r16)
 4002b70:	11a7c83a 	sub	r19,r2,r6
 4002b74:	28008226 	beq	r5,zero,4002d80 <_fseeko_r+0x418>
 4002b78:	81c00f17 	ldw	r7,60(r16)
 4002b7c:	99e7c83a 	sub	r19,r19,r7
 4002b80:	81000e17 	ldw	r4,56(r16)
 4002b84:	80800417 	ldw	r2,16(r16)
 4002b88:	99a7883a 	add	r19,r19,r6
 4002b8c:	2087c83a 	sub	r3,r4,r2
 4002b90:	98e7c83a 	sub	r19,r19,r3
 4002b94:	38c7883a 	add	r3,r7,r3
 4002b98:	b4c02b16 	blt	r22,r19,4002c48 <_fseeko_r+0x2e0>
 4002b9c:	98c9883a 	add	r4,r19,r3
 4002ba0:	b100292e 	bgeu	r22,r4,4002c48 <_fseeko_r+0x2e0>
 4002ba4:	b4e7c83a 	sub	r19,r22,r19
 4002ba8:	14c5883a 	add	r2,r2,r19
 4002bac:	1ce7c83a 	sub	r19,r3,r19
 4002bb0:	80800015 	stw	r2,0(r16)
 4002bb4:	84c00115 	stw	r19,4(r16)
 4002bb8:	28000526 	beq	r5,zero,4002bd0 <_fseeko_r+0x268>
 4002bbc:	80801004 	addi	r2,r16,64
 4002bc0:	28800226 	beq	r5,r2,4002bcc <_fseeko_r+0x264>
 4002bc4:	8809883a 	mov	r4,r17
 4002bc8:	40026380 	call	4002638 <_free_r>
 4002bcc:	80000c15 	stw	zero,48(r16)
 4002bd0:	8080030b 	ldhu	r2,12(r16)
 4002bd4:	01800204 	movi	r6,8
 4002bd8:	000b883a 	mov	r5,zero
 4002bdc:	10bff7cc 	andi	r2,r2,65503
 4002be0:	8080030d 	sth	r2,12(r16)
 4002be4:	81001704 	addi	r4,r16,92
 4002be8:	4003cec0 	call	4003cec <memset>
 4002bec:	0027883a 	mov	r19,zero
 4002bf0:	003f7c06 	br	40029e4 <__alt_data_end+0xfc0029e4>
 4002bf4:	80c00117 	ldw	r3,4(r16)
 4002bf8:	80800c17 	ldw	r2,48(r16)
 4002bfc:	98e7c83a 	sub	r19,r19,r3
 4002c00:	10003b26 	beq	r2,zero,4002cf0 <_fseeko_r+0x388>
 4002c04:	80c00f17 	ldw	r3,60(r16)
 4002c08:	80800417 	ldw	r2,16(r16)
 4002c0c:	98e7c83a 	sub	r19,r19,r3
 4002c10:	003fbc06 	br	4002b04 <__alt_data_end+0xfc002b04>
 4002c14:	8140038f 	ldh	r5,14(r16)
 4002c18:	d80d883a 	mov	r6,sp
 4002c1c:	8809883a 	mov	r4,r17
 4002c20:	4002dc80 	call	4002dc8 <_fstat_r>
 4002c24:	103f891e 	bne	r2,zero,4002a4c <__alt_data_end+0xfc002a4c>
 4002c28:	dd800417 	ldw	r22,16(sp)
 4002c2c:	adad883a 	add	r22,r21,r22
 4002c30:	b83fc926 	beq	r23,zero,4002b58 <__alt_data_end+0xfc002b58>
 4002c34:	81400c17 	ldw	r5,48(r16)
 4002c38:	81800117 	ldw	r6,4(r16)
 4002c3c:	28005026 	beq	r5,zero,4002d80 <_fseeko_r+0x418>
 4002c40:	81c00f17 	ldw	r7,60(r16)
 4002c44:	003fce06 	br	4002b80 <__alt_data_end+0xfc002b80>
 4002c48:	84c01317 	ldw	r19,76(r16)
 4002c4c:	81400717 	ldw	r5,28(r16)
 4002c50:	000f883a 	mov	r7,zero
 4002c54:	04e7c83a 	sub	r19,zero,r19
 4002c58:	9da6703a 	and	r19,r19,r22
 4002c5c:	980d883a 	mov	r6,r19
 4002c60:	8809883a 	mov	r4,r17
 4002c64:	a03ee83a 	callr	r20
 4002c68:	00ffffc4 	movi	r3,-1
 4002c6c:	10ff7726 	beq	r2,r3,4002a4c <__alt_data_end+0xfc002a4c>
 4002c70:	80800417 	ldw	r2,16(r16)
 4002c74:	81400c17 	ldw	r5,48(r16)
 4002c78:	80000115 	stw	zero,4(r16)
 4002c7c:	80800015 	stw	r2,0(r16)
 4002c80:	28000526 	beq	r5,zero,4002c98 <_fseeko_r+0x330>
 4002c84:	80801004 	addi	r2,r16,64
 4002c88:	28800226 	beq	r5,r2,4002c94 <_fseeko_r+0x32c>
 4002c8c:	8809883a 	mov	r4,r17
 4002c90:	40026380 	call	4002638 <_free_r>
 4002c94:	80000c15 	stw	zero,48(r16)
 4002c98:	8080030b 	ldhu	r2,12(r16)
 4002c9c:	b4e7c83a 	sub	r19,r22,r19
 4002ca0:	10bff7cc 	andi	r2,r2,65503
 4002ca4:	8080030d 	sth	r2,12(r16)
 4002ca8:	98000b26 	beq	r19,zero,4002cd8 <_fseeko_r+0x370>
 4002cac:	800b883a 	mov	r5,r16
 4002cb0:	8809883a 	mov	r4,r17
 4002cb4:	4003f640 	call	4003f64 <__srefill_r>
 4002cb8:	103f641e 	bne	r2,zero,4002a4c <__alt_data_end+0xfc002a4c>
 4002cbc:	80800117 	ldw	r2,4(r16)
 4002cc0:	14ff6236 	bltu	r2,r19,4002a4c <__alt_data_end+0xfc002a4c>
 4002cc4:	80c00017 	ldw	r3,0(r16)
 4002cc8:	14c5c83a 	sub	r2,r2,r19
 4002ccc:	80800115 	stw	r2,4(r16)
 4002cd0:	1ce7883a 	add	r19,r3,r19
 4002cd4:	84c00015 	stw	r19,0(r16)
 4002cd8:	01800204 	movi	r6,8
 4002cdc:	000b883a 	mov	r5,zero
 4002ce0:	81001704 	addi	r4,r16,92
 4002ce4:	4003cec0 	call	4003cec <memset>
 4002ce8:	0027883a 	mov	r19,zero
 4002cec:	003f3d06 	br	40029e4 <__alt_data_end+0xfc0029e4>
 4002cf0:	80800417 	ldw	r2,16(r16)
 4002cf4:	003f8306 	br	4002b04 <__alt_data_end+0xfc002b04>
 4002cf8:	81400717 	ldw	r5,28(r16)
 4002cfc:	900f883a 	mov	r7,r18
 4002d00:	000d883a 	mov	r6,zero
 4002d04:	8809883a 	mov	r4,r17
 4002d08:	a03ee83a 	callr	r20
 4002d0c:	1027883a 	mov	r19,r2
 4002d10:	00bfffc4 	movi	r2,-1
 4002d14:	98bf3226 	beq	r19,r2,40029e0 <__alt_data_end+0xfc0029e0>
 4002d18:	8080030b 	ldhu	r2,12(r16)
 4002d1c:	003f7006 	br	4002ae0 <__alt_data_end+0xfc002ae0>
 4002d20:	8140038f 	ldh	r5,14(r16)
 4002d24:	283f4716 	blt	r5,zero,4002a44 <__alt_data_end+0xfc002a44>
 4002d28:	d80d883a 	mov	r6,sp
 4002d2c:	8809883a 	mov	r4,r17
 4002d30:	4002dc80 	call	4002dc8 <_fstat_r>
 4002d34:	1000041e 	bne	r2,zero,4002d48 <_fseeko_r+0x3e0>
 4002d38:	d8800117 	ldw	r2,4(sp)
 4002d3c:	00e00014 	movui	r3,32768
 4002d40:	10bc000c 	andi	r2,r2,61440
 4002d44:	10ff7c26 	beq	r2,r3,4002b38 <__alt_data_end+0xfc002b38>
 4002d48:	8080030b 	ldhu	r2,12(r16)
 4002d4c:	003f3d06 	br	4002a44 <__alt_data_end+0xfc002a44>
 4002d50:	800b883a 	mov	r5,r16
 4002d54:	8809883a 	mov	r4,r17
 4002d58:	40031b40 	call	40031b4 <__smakebuf_r>
 4002d5c:	003f3106 	br	4002a24 <__alt_data_end+0xfc002a24>
 4002d60:	81400717 	ldw	r5,28(r16)
 4002d64:	01c00044 	movi	r7,1
 4002d68:	000d883a 	mov	r6,zero
 4002d6c:	8809883a 	mov	r4,r17
 4002d70:	a03ee83a 	callr	r20
 4002d74:	00ffffc4 	movi	r3,-1
 4002d78:	10ff7b1e 	bne	r2,r3,4002b68 <__alt_data_end+0xfc002b68>
 4002d7c:	003f3306 	br	4002a4c <__alt_data_end+0xfc002a4c>
 4002d80:	80c00017 	ldw	r3,0(r16)
 4002d84:	80800417 	ldw	r2,16(r16)
 4002d88:	000b883a 	mov	r5,zero
 4002d8c:	1887c83a 	sub	r3,r3,r2
 4002d90:	98e7c83a 	sub	r19,r19,r3
 4002d94:	30c7883a 	add	r3,r6,r3
 4002d98:	003f7f06 	br	4002b98 <__alt_data_end+0xfc002b98>
 4002d9c:	00800744 	movi	r2,29
 4002da0:	88800015 	stw	r2,0(r17)
 4002da4:	04ffffc4 	movi	r19,-1
 4002da8:	003f0e06 	br	40029e4 <__alt_data_end+0xfc0029e4>

04002dac <fseeko>:
 4002dac:	008100b4 	movhi	r2,1026
 4002db0:	10a8dd04 	addi	r2,r2,-23692
 4002db4:	300f883a 	mov	r7,r6
 4002db8:	280d883a 	mov	r6,r5
 4002dbc:	200b883a 	mov	r5,r4
 4002dc0:	11000017 	ldw	r4,0(r2)
 4002dc4:	40029681 	jmpi	4002968 <_fseeko_r>

04002dc8 <_fstat_r>:
 4002dc8:	defffd04 	addi	sp,sp,-12
 4002dcc:	2805883a 	mov	r2,r5
 4002dd0:	dc000015 	stw	r16,0(sp)
 4002dd4:	040100b4 	movhi	r16,1026
 4002dd8:	dc400115 	stw	r17,4(sp)
 4002ddc:	84303904 	addi	r16,r16,-16156
 4002de0:	2023883a 	mov	r17,r4
 4002de4:	300b883a 	mov	r5,r6
 4002de8:	1009883a 	mov	r4,r2
 4002dec:	dfc00215 	stw	ra,8(sp)
 4002df0:	80000015 	stw	zero,0(r16)
 4002df4:	40145340 	call	4014534 <fstat>
 4002df8:	00ffffc4 	movi	r3,-1
 4002dfc:	10c00526 	beq	r2,r3,4002e14 <_fstat_r+0x4c>
 4002e00:	dfc00217 	ldw	ra,8(sp)
 4002e04:	dc400117 	ldw	r17,4(sp)
 4002e08:	dc000017 	ldw	r16,0(sp)
 4002e0c:	dec00304 	addi	sp,sp,12
 4002e10:	f800283a 	ret
 4002e14:	80c00017 	ldw	r3,0(r16)
 4002e18:	183ff926 	beq	r3,zero,4002e00 <__alt_data_end+0xfc002e00>
 4002e1c:	88c00015 	stw	r3,0(r17)
 4002e20:	003ff706 	br	4002e00 <__alt_data_end+0xfc002e00>

04002e24 <_fwalk>:
 4002e24:	defff704 	addi	sp,sp,-36
 4002e28:	dd000415 	stw	r20,16(sp)
 4002e2c:	dfc00815 	stw	ra,32(sp)
 4002e30:	ddc00715 	stw	r23,28(sp)
 4002e34:	dd800615 	stw	r22,24(sp)
 4002e38:	dd400515 	stw	r21,20(sp)
 4002e3c:	dcc00315 	stw	r19,12(sp)
 4002e40:	dc800215 	stw	r18,8(sp)
 4002e44:	dc400115 	stw	r17,4(sp)
 4002e48:	dc000015 	stw	r16,0(sp)
 4002e4c:	2500b804 	addi	r20,r4,736
 4002e50:	a0002326 	beq	r20,zero,4002ee0 <_fwalk+0xbc>
 4002e54:	282b883a 	mov	r21,r5
 4002e58:	002f883a 	mov	r23,zero
 4002e5c:	05800044 	movi	r22,1
 4002e60:	04ffffc4 	movi	r19,-1
 4002e64:	a4400117 	ldw	r17,4(r20)
 4002e68:	a4800217 	ldw	r18,8(r20)
 4002e6c:	8c7fffc4 	addi	r17,r17,-1
 4002e70:	88000d16 	blt	r17,zero,4002ea8 <_fwalk+0x84>
 4002e74:	94000304 	addi	r16,r18,12
 4002e78:	94800384 	addi	r18,r18,14
 4002e7c:	8080000b 	ldhu	r2,0(r16)
 4002e80:	8c7fffc4 	addi	r17,r17,-1
 4002e84:	813ffd04 	addi	r4,r16,-12
 4002e88:	b080042e 	bgeu	r22,r2,4002e9c <_fwalk+0x78>
 4002e8c:	9080000f 	ldh	r2,0(r18)
 4002e90:	14c00226 	beq	r2,r19,4002e9c <_fwalk+0x78>
 4002e94:	a83ee83a 	callr	r21
 4002e98:	b8aeb03a 	or	r23,r23,r2
 4002e9c:	84001a04 	addi	r16,r16,104
 4002ea0:	94801a04 	addi	r18,r18,104
 4002ea4:	8cfff51e 	bne	r17,r19,4002e7c <__alt_data_end+0xfc002e7c>
 4002ea8:	a5000017 	ldw	r20,0(r20)
 4002eac:	a03fed1e 	bne	r20,zero,4002e64 <__alt_data_end+0xfc002e64>
 4002eb0:	b805883a 	mov	r2,r23
 4002eb4:	dfc00817 	ldw	ra,32(sp)
 4002eb8:	ddc00717 	ldw	r23,28(sp)
 4002ebc:	dd800617 	ldw	r22,24(sp)
 4002ec0:	dd400517 	ldw	r21,20(sp)
 4002ec4:	dd000417 	ldw	r20,16(sp)
 4002ec8:	dcc00317 	ldw	r19,12(sp)
 4002ecc:	dc800217 	ldw	r18,8(sp)
 4002ed0:	dc400117 	ldw	r17,4(sp)
 4002ed4:	dc000017 	ldw	r16,0(sp)
 4002ed8:	dec00904 	addi	sp,sp,36
 4002edc:	f800283a 	ret
 4002ee0:	002f883a 	mov	r23,zero
 4002ee4:	003ff206 	br	4002eb0 <__alt_data_end+0xfc002eb0>

04002ee8 <_fwalk_reent>:
 4002ee8:	defff704 	addi	sp,sp,-36
 4002eec:	dd000415 	stw	r20,16(sp)
 4002ef0:	dfc00815 	stw	ra,32(sp)
 4002ef4:	ddc00715 	stw	r23,28(sp)
 4002ef8:	dd800615 	stw	r22,24(sp)
 4002efc:	dd400515 	stw	r21,20(sp)
 4002f00:	dcc00315 	stw	r19,12(sp)
 4002f04:	dc800215 	stw	r18,8(sp)
 4002f08:	dc400115 	stw	r17,4(sp)
 4002f0c:	dc000015 	stw	r16,0(sp)
 4002f10:	2500b804 	addi	r20,r4,736
 4002f14:	a0002326 	beq	r20,zero,4002fa4 <_fwalk_reent+0xbc>
 4002f18:	282b883a 	mov	r21,r5
 4002f1c:	2027883a 	mov	r19,r4
 4002f20:	002f883a 	mov	r23,zero
 4002f24:	05800044 	movi	r22,1
 4002f28:	04bfffc4 	movi	r18,-1
 4002f2c:	a4400117 	ldw	r17,4(r20)
 4002f30:	a4000217 	ldw	r16,8(r20)
 4002f34:	8c7fffc4 	addi	r17,r17,-1
 4002f38:	88000c16 	blt	r17,zero,4002f6c <_fwalk_reent+0x84>
 4002f3c:	84000304 	addi	r16,r16,12
 4002f40:	8080000b 	ldhu	r2,0(r16)
 4002f44:	8c7fffc4 	addi	r17,r17,-1
 4002f48:	817ffd04 	addi	r5,r16,-12
 4002f4c:	b080052e 	bgeu	r22,r2,4002f64 <_fwalk_reent+0x7c>
 4002f50:	8080008f 	ldh	r2,2(r16)
 4002f54:	9809883a 	mov	r4,r19
 4002f58:	14800226 	beq	r2,r18,4002f64 <_fwalk_reent+0x7c>
 4002f5c:	a83ee83a 	callr	r21
 4002f60:	b8aeb03a 	or	r23,r23,r2
 4002f64:	84001a04 	addi	r16,r16,104
 4002f68:	8cbff51e 	bne	r17,r18,4002f40 <__alt_data_end+0xfc002f40>
 4002f6c:	a5000017 	ldw	r20,0(r20)
 4002f70:	a03fee1e 	bne	r20,zero,4002f2c <__alt_data_end+0xfc002f2c>
 4002f74:	b805883a 	mov	r2,r23
 4002f78:	dfc00817 	ldw	ra,32(sp)
 4002f7c:	ddc00717 	ldw	r23,28(sp)
 4002f80:	dd800617 	ldw	r22,24(sp)
 4002f84:	dd400517 	ldw	r21,20(sp)
 4002f88:	dd000417 	ldw	r20,16(sp)
 4002f8c:	dcc00317 	ldw	r19,12(sp)
 4002f90:	dc800217 	ldw	r18,8(sp)
 4002f94:	dc400117 	ldw	r17,4(sp)
 4002f98:	dc000017 	ldw	r16,0(sp)
 4002f9c:	dec00904 	addi	sp,sp,36
 4002fa0:	f800283a 	ret
 4002fa4:	002f883a 	mov	r23,zero
 4002fa8:	003ff206 	br	4002f74 <__alt_data_end+0xfc002f74>

04002fac <_fwrite_r>:
 4002fac:	defff504 	addi	sp,sp,-44
 4002fb0:	dc400715 	stw	r17,28(sp)
 4002fb4:	d9400315 	stw	r5,12(sp)
 4002fb8:	2023883a 	mov	r17,r4
 4002fbc:	300b883a 	mov	r5,r6
 4002fc0:	3809883a 	mov	r4,r7
 4002fc4:	dcc00915 	stw	r19,36(sp)
 4002fc8:	dc800815 	stw	r18,32(sp)
 4002fcc:	dc000615 	stw	r16,24(sp)
 4002fd0:	dfc00a15 	stw	ra,40(sp)
 4002fd4:	3027883a 	mov	r19,r6
 4002fd8:	3821883a 	mov	r16,r7
 4002fdc:	4001a140 	call	4001a14 <__mulsi3>
 4002fe0:	1025883a 	mov	r18,r2
 4002fe4:	d8800415 	stw	r2,16(sp)
 4002fe8:	d8800215 	stw	r2,8(sp)
 4002fec:	d8800304 	addi	r2,sp,12
 4002ff0:	d8800015 	stw	r2,0(sp)
 4002ff4:	00800044 	movi	r2,1
 4002ff8:	d8800115 	stw	r2,4(sp)
 4002ffc:	d9400b17 	ldw	r5,44(sp)
 4003000:	88000226 	beq	r17,zero,400300c <_fwrite_r+0x60>
 4003004:	88800e17 	ldw	r2,56(r17)
 4003008:	10001a26 	beq	r2,zero,4003074 <_fwrite_r+0xc8>
 400300c:	2880030b 	ldhu	r2,12(r5)
 4003010:	10c8000c 	andi	r3,r2,8192
 4003014:	1800061e 	bne	r3,zero,4003030 <_fwrite_r+0x84>
 4003018:	29001917 	ldw	r4,100(r5)
 400301c:	00f7ffc4 	movi	r3,-8193
 4003020:	10880014 	ori	r2,r2,8192
 4003024:	20c6703a 	and	r3,r4,r3
 4003028:	2880030d 	sth	r2,12(r5)
 400302c:	28c01915 	stw	r3,100(r5)
 4003030:	d80d883a 	mov	r6,sp
 4003034:	8809883a 	mov	r4,r17
 4003038:	40063a80 	call	40063a8 <__sfvwrite_r>
 400303c:	10000b26 	beq	r2,zero,400306c <_fwrite_r+0xc0>
 4003040:	d9000217 	ldw	r4,8(sp)
 4003044:	980b883a 	mov	r5,r19
 4003048:	9109c83a 	sub	r4,r18,r4
 400304c:	40019580 	call	4001958 <__udivsi3>
 4003050:	dfc00a17 	ldw	ra,40(sp)
 4003054:	dcc00917 	ldw	r19,36(sp)
 4003058:	dc800817 	ldw	r18,32(sp)
 400305c:	dc400717 	ldw	r17,28(sp)
 4003060:	dc000617 	ldw	r16,24(sp)
 4003064:	dec00b04 	addi	sp,sp,44
 4003068:	f800283a 	ret
 400306c:	8005883a 	mov	r2,r16
 4003070:	003ff706 	br	4003050 <__alt_data_end+0xfc003050>
 4003074:	8809883a 	mov	r4,r17
 4003078:	d9400515 	stw	r5,20(sp)
 400307c:	40021480 	call	4002148 <__sinit>
 4003080:	d9400517 	ldw	r5,20(sp)
 4003084:	003fe106 	br	400300c <__alt_data_end+0xfc00300c>

04003088 <fwrite>:
 4003088:	defffe04 	addi	sp,sp,-8
 400308c:	008100b4 	movhi	r2,1026
 4003090:	d9c00015 	stw	r7,0(sp)
 4003094:	10a8dd04 	addi	r2,r2,-23692
 4003098:	300f883a 	mov	r7,r6
 400309c:	280d883a 	mov	r6,r5
 40030a0:	200b883a 	mov	r5,r4
 40030a4:	11000017 	ldw	r4,0(r2)
 40030a8:	dfc00115 	stw	ra,4(sp)
 40030ac:	4002fac0 	call	4002fac <_fwrite_r>
 40030b0:	dfc00117 	ldw	ra,4(sp)
 40030b4:	dec00204 	addi	sp,sp,8
 40030b8:	f800283a 	ret

040030bc <_getc_r>:
 40030bc:	defffd04 	addi	sp,sp,-12
 40030c0:	dc000115 	stw	r16,4(sp)
 40030c4:	dfc00215 	stw	ra,8(sp)
 40030c8:	2021883a 	mov	r16,r4
 40030cc:	20000226 	beq	r4,zero,40030d8 <_getc_r+0x1c>
 40030d0:	20800e17 	ldw	r2,56(r4)
 40030d4:	10000c26 	beq	r2,zero,4003108 <_getc_r+0x4c>
 40030d8:	28800117 	ldw	r2,4(r5)
 40030dc:	10bfffc4 	addi	r2,r2,-1
 40030e0:	28800115 	stw	r2,4(r5)
 40030e4:	10000c16 	blt	r2,zero,4003118 <_getc_r+0x5c>
 40030e8:	28800017 	ldw	r2,0(r5)
 40030ec:	10c00044 	addi	r3,r2,1
 40030f0:	28c00015 	stw	r3,0(r5)
 40030f4:	10800003 	ldbu	r2,0(r2)
 40030f8:	dfc00217 	ldw	ra,8(sp)
 40030fc:	dc000117 	ldw	r16,4(sp)
 4003100:	dec00304 	addi	sp,sp,12
 4003104:	f800283a 	ret
 4003108:	d9400015 	stw	r5,0(sp)
 400310c:	40021480 	call	4002148 <__sinit>
 4003110:	d9400017 	ldw	r5,0(sp)
 4003114:	003ff006 	br	40030d8 <__alt_data_end+0xfc0030d8>
 4003118:	8009883a 	mov	r4,r16
 400311c:	dfc00217 	ldw	ra,8(sp)
 4003120:	dc000117 	ldw	r16,4(sp)
 4003124:	dec00304 	addi	sp,sp,12
 4003128:	40041381 	jmpi	4004138 <__srget_r>

0400312c <getc>:
 400312c:	008100b4 	movhi	r2,1026
 4003130:	defffd04 	addi	sp,sp,-12
 4003134:	10a8dd04 	addi	r2,r2,-23692
 4003138:	dc400115 	stw	r17,4(sp)
 400313c:	14400017 	ldw	r17,0(r2)
 4003140:	dc000015 	stw	r16,0(sp)
 4003144:	dfc00215 	stw	ra,8(sp)
 4003148:	2021883a 	mov	r16,r4
 400314c:	88000226 	beq	r17,zero,4003158 <getc+0x2c>
 4003150:	88800e17 	ldw	r2,56(r17)
 4003154:	10000d26 	beq	r2,zero,400318c <getc+0x60>
 4003158:	80800117 	ldw	r2,4(r16)
 400315c:	10bfffc4 	addi	r2,r2,-1
 4003160:	80800115 	stw	r2,4(r16)
 4003164:	10000c16 	blt	r2,zero,4003198 <getc+0x6c>
 4003168:	80800017 	ldw	r2,0(r16)
 400316c:	10c00044 	addi	r3,r2,1
 4003170:	80c00015 	stw	r3,0(r16)
 4003174:	10800003 	ldbu	r2,0(r2)
 4003178:	dfc00217 	ldw	ra,8(sp)
 400317c:	dc400117 	ldw	r17,4(sp)
 4003180:	dc000017 	ldw	r16,0(sp)
 4003184:	dec00304 	addi	sp,sp,12
 4003188:	f800283a 	ret
 400318c:	8809883a 	mov	r4,r17
 4003190:	40021480 	call	4002148 <__sinit>
 4003194:	003ff006 	br	4003158 <__alt_data_end+0xfc003158>
 4003198:	800b883a 	mov	r5,r16
 400319c:	8809883a 	mov	r4,r17
 40031a0:	dfc00217 	ldw	ra,8(sp)
 40031a4:	dc400117 	ldw	r17,4(sp)
 40031a8:	dc000017 	ldw	r16,0(sp)
 40031ac:	dec00304 	addi	sp,sp,12
 40031b0:	40041381 	jmpi	4004138 <__srget_r>

040031b4 <__smakebuf_r>:
 40031b4:	2880030b 	ldhu	r2,12(r5)
 40031b8:	10c0008c 	andi	r3,r2,2
 40031bc:	1800411e 	bne	r3,zero,40032c4 <__smakebuf_r+0x110>
 40031c0:	deffec04 	addi	sp,sp,-80
 40031c4:	dc000f15 	stw	r16,60(sp)
 40031c8:	2821883a 	mov	r16,r5
 40031cc:	2940038f 	ldh	r5,14(r5)
 40031d0:	dc401015 	stw	r17,64(sp)
 40031d4:	dfc01315 	stw	ra,76(sp)
 40031d8:	dcc01215 	stw	r19,72(sp)
 40031dc:	dc801115 	stw	r18,68(sp)
 40031e0:	2023883a 	mov	r17,r4
 40031e4:	28001c16 	blt	r5,zero,4003258 <__smakebuf_r+0xa4>
 40031e8:	d80d883a 	mov	r6,sp
 40031ec:	4002dc80 	call	4002dc8 <_fstat_r>
 40031f0:	10001816 	blt	r2,zero,4003254 <__smakebuf_r+0xa0>
 40031f4:	d8800117 	ldw	r2,4(sp)
 40031f8:	00e00014 	movui	r3,32768
 40031fc:	10bc000c 	andi	r2,r2,61440
 4003200:	14c80020 	cmpeqi	r19,r2,8192
 4003204:	10c03726 	beq	r2,r3,40032e4 <__smakebuf_r+0x130>
 4003208:	80c0030b 	ldhu	r3,12(r16)
 400320c:	18c20014 	ori	r3,r3,2048
 4003210:	80c0030d 	sth	r3,12(r16)
 4003214:	00c80004 	movi	r3,8192
 4003218:	10c0521e 	bne	r2,r3,4003364 <__smakebuf_r+0x1b0>
 400321c:	8140038f 	ldh	r5,14(r16)
 4003220:	8809883a 	mov	r4,r17
 4003224:	40068700 	call	4006870 <_isatty_r>
 4003228:	10004c26 	beq	r2,zero,400335c <__smakebuf_r+0x1a8>
 400322c:	8080030b 	ldhu	r2,12(r16)
 4003230:	80c010c4 	addi	r3,r16,67
 4003234:	80c00015 	stw	r3,0(r16)
 4003238:	10800054 	ori	r2,r2,1
 400323c:	8080030d 	sth	r2,12(r16)
 4003240:	00800044 	movi	r2,1
 4003244:	80c00415 	stw	r3,16(r16)
 4003248:	80800515 	stw	r2,20(r16)
 400324c:	04810004 	movi	r18,1024
 4003250:	00000706 	br	4003270 <__smakebuf_r+0xbc>
 4003254:	8080030b 	ldhu	r2,12(r16)
 4003258:	10c0200c 	andi	r3,r2,128
 400325c:	18001f1e 	bne	r3,zero,40032dc <__smakebuf_r+0x128>
 4003260:	04810004 	movi	r18,1024
 4003264:	10820014 	ori	r2,r2,2048
 4003268:	8080030d 	sth	r2,12(r16)
 400326c:	0027883a 	mov	r19,zero
 4003270:	900b883a 	mov	r5,r18
 4003274:	8809883a 	mov	r4,r17
 4003278:	40033980 	call	4003398 <_malloc_r>
 400327c:	10002c26 	beq	r2,zero,4003330 <__smakebuf_r+0x17c>
 4003280:	80c0030b 	ldhu	r3,12(r16)
 4003284:	01010034 	movhi	r4,1024
 4003288:	21077c04 	addi	r4,r4,7664
 400328c:	89000f15 	stw	r4,60(r17)
 4003290:	18c02014 	ori	r3,r3,128
 4003294:	80c0030d 	sth	r3,12(r16)
 4003298:	80800015 	stw	r2,0(r16)
 400329c:	80800415 	stw	r2,16(r16)
 40032a0:	84800515 	stw	r18,20(r16)
 40032a4:	98001a1e 	bne	r19,zero,4003310 <__smakebuf_r+0x15c>
 40032a8:	dfc01317 	ldw	ra,76(sp)
 40032ac:	dcc01217 	ldw	r19,72(sp)
 40032b0:	dc801117 	ldw	r18,68(sp)
 40032b4:	dc401017 	ldw	r17,64(sp)
 40032b8:	dc000f17 	ldw	r16,60(sp)
 40032bc:	dec01404 	addi	sp,sp,80
 40032c0:	f800283a 	ret
 40032c4:	288010c4 	addi	r2,r5,67
 40032c8:	28800015 	stw	r2,0(r5)
 40032cc:	28800415 	stw	r2,16(r5)
 40032d0:	00800044 	movi	r2,1
 40032d4:	28800515 	stw	r2,20(r5)
 40032d8:	f800283a 	ret
 40032dc:	04801004 	movi	r18,64
 40032e0:	003fe006 	br	4003264 <__alt_data_end+0xfc003264>
 40032e4:	81000a17 	ldw	r4,40(r16)
 40032e8:	00c10034 	movhi	r3,1024
 40032ec:	18d0d604 	addi	r3,r3,17240
 40032f0:	20ffc51e 	bne	r4,r3,4003208 <__alt_data_end+0xfc003208>
 40032f4:	8080030b 	ldhu	r2,12(r16)
 40032f8:	04810004 	movi	r18,1024
 40032fc:	84801315 	stw	r18,76(r16)
 4003300:	1484b03a 	or	r2,r2,r18
 4003304:	8080030d 	sth	r2,12(r16)
 4003308:	0027883a 	mov	r19,zero
 400330c:	003fd806 	br	4003270 <__alt_data_end+0xfc003270>
 4003310:	8140038f 	ldh	r5,14(r16)
 4003314:	8809883a 	mov	r4,r17
 4003318:	40068700 	call	4006870 <_isatty_r>
 400331c:	103fe226 	beq	r2,zero,40032a8 <__alt_data_end+0xfc0032a8>
 4003320:	8080030b 	ldhu	r2,12(r16)
 4003324:	10800054 	ori	r2,r2,1
 4003328:	8080030d 	sth	r2,12(r16)
 400332c:	003fde06 	br	40032a8 <__alt_data_end+0xfc0032a8>
 4003330:	8080030b 	ldhu	r2,12(r16)
 4003334:	10c0800c 	andi	r3,r2,512
 4003338:	183fdb1e 	bne	r3,zero,40032a8 <__alt_data_end+0xfc0032a8>
 400333c:	10800094 	ori	r2,r2,2
 4003340:	80c010c4 	addi	r3,r16,67
 4003344:	8080030d 	sth	r2,12(r16)
 4003348:	00800044 	movi	r2,1
 400334c:	80c00015 	stw	r3,0(r16)
 4003350:	80c00415 	stw	r3,16(r16)
 4003354:	80800515 	stw	r2,20(r16)
 4003358:	003fd306 	br	40032a8 <__alt_data_end+0xfc0032a8>
 400335c:	04810004 	movi	r18,1024
 4003360:	003fc306 	br	4003270 <__alt_data_end+0xfc003270>
 4003364:	0027883a 	mov	r19,zero
 4003368:	04810004 	movi	r18,1024
 400336c:	003fc006 	br	4003270 <__alt_data_end+0xfc003270>

04003370 <malloc>:
 4003370:	008100b4 	movhi	r2,1026
 4003374:	10a8dd04 	addi	r2,r2,-23692
 4003378:	200b883a 	mov	r5,r4
 400337c:	11000017 	ldw	r4,0(r2)
 4003380:	40033981 	jmpi	4003398 <_malloc_r>

04003384 <free>:
 4003384:	008100b4 	movhi	r2,1026
 4003388:	10a8dd04 	addi	r2,r2,-23692
 400338c:	200b883a 	mov	r5,r4
 4003390:	11000017 	ldw	r4,0(r2)
 4003394:	40026381 	jmpi	4002638 <_free_r>

04003398 <_malloc_r>:
 4003398:	defff504 	addi	sp,sp,-44
 400339c:	dc800315 	stw	r18,12(sp)
 40033a0:	dfc00a15 	stw	ra,40(sp)
 40033a4:	df000915 	stw	fp,36(sp)
 40033a8:	ddc00815 	stw	r23,32(sp)
 40033ac:	dd800715 	stw	r22,28(sp)
 40033b0:	dd400615 	stw	r21,24(sp)
 40033b4:	dd000515 	stw	r20,20(sp)
 40033b8:	dcc00415 	stw	r19,16(sp)
 40033bc:	dc400215 	stw	r17,8(sp)
 40033c0:	dc000115 	stw	r16,4(sp)
 40033c4:	288002c4 	addi	r2,r5,11
 40033c8:	00c00584 	movi	r3,22
 40033cc:	2025883a 	mov	r18,r4
 40033d0:	18807f2e 	bgeu	r3,r2,40035d0 <_malloc_r+0x238>
 40033d4:	047ffe04 	movi	r17,-8
 40033d8:	1462703a 	and	r17,r2,r17
 40033dc:	8800a316 	blt	r17,zero,400366c <_malloc_r+0x2d4>
 40033e0:	8940a236 	bltu	r17,r5,400366c <_malloc_r+0x2d4>
 40033e4:	40149540 	call	4014954 <__malloc_lock>
 40033e8:	00807dc4 	movi	r2,503
 40033ec:	1441e92e 	bgeu	r2,r17,4003b94 <_malloc_r+0x7fc>
 40033f0:	8804d27a 	srli	r2,r17,9
 40033f4:	1000a126 	beq	r2,zero,400367c <_malloc_r+0x2e4>
 40033f8:	00c00104 	movi	r3,4
 40033fc:	18811e36 	bltu	r3,r2,4003878 <_malloc_r+0x4e0>
 4003400:	8804d1ba 	srli	r2,r17,6
 4003404:	12000e44 	addi	r8,r2,57
 4003408:	11c00e04 	addi	r7,r2,56
 400340c:	4209883a 	add	r4,r8,r8
 4003410:	04c100b4 	movhi	r19,1026
 4003414:	2109883a 	add	r4,r4,r4
 4003418:	9ce31804 	addi	r19,r19,-29600
 400341c:	2109883a 	add	r4,r4,r4
 4003420:	9909883a 	add	r4,r19,r4
 4003424:	24000117 	ldw	r16,4(r4)
 4003428:	213ffe04 	addi	r4,r4,-8
 400342c:	24009726 	beq	r4,r16,400368c <_malloc_r+0x2f4>
 4003430:	80800117 	ldw	r2,4(r16)
 4003434:	01bfff04 	movi	r6,-4
 4003438:	014003c4 	movi	r5,15
 400343c:	1184703a 	and	r2,r2,r6
 4003440:	1447c83a 	sub	r3,r2,r17
 4003444:	28c00716 	blt	r5,r3,4003464 <_malloc_r+0xcc>
 4003448:	1800920e 	bge	r3,zero,4003694 <_malloc_r+0x2fc>
 400344c:	84000317 	ldw	r16,12(r16)
 4003450:	24008e26 	beq	r4,r16,400368c <_malloc_r+0x2f4>
 4003454:	80800117 	ldw	r2,4(r16)
 4003458:	1184703a 	and	r2,r2,r6
 400345c:	1447c83a 	sub	r3,r2,r17
 4003460:	28fff90e 	bge	r5,r3,4003448 <__alt_data_end+0xfc003448>
 4003464:	3809883a 	mov	r4,r7
 4003468:	018100b4 	movhi	r6,1026
 400346c:	9c000417 	ldw	r16,16(r19)
 4003470:	31a31804 	addi	r6,r6,-29600
 4003474:	32000204 	addi	r8,r6,8
 4003478:	82013426 	beq	r16,r8,400394c <_malloc_r+0x5b4>
 400347c:	80c00117 	ldw	r3,4(r16)
 4003480:	00bfff04 	movi	r2,-4
 4003484:	188e703a 	and	r7,r3,r2
 4003488:	3c45c83a 	sub	r2,r7,r17
 400348c:	00c003c4 	movi	r3,15
 4003490:	18811f16 	blt	r3,r2,4003910 <_malloc_r+0x578>
 4003494:	32000515 	stw	r8,20(r6)
 4003498:	32000415 	stw	r8,16(r6)
 400349c:	10007f0e 	bge	r2,zero,400369c <_malloc_r+0x304>
 40034a0:	00807fc4 	movi	r2,511
 40034a4:	11c0fd36 	bltu	r2,r7,400389c <_malloc_r+0x504>
 40034a8:	3806d0fa 	srli	r3,r7,3
 40034ac:	01c00044 	movi	r7,1
 40034b0:	30800117 	ldw	r2,4(r6)
 40034b4:	19400044 	addi	r5,r3,1
 40034b8:	294b883a 	add	r5,r5,r5
 40034bc:	1807d0ba 	srai	r3,r3,2
 40034c0:	294b883a 	add	r5,r5,r5
 40034c4:	294b883a 	add	r5,r5,r5
 40034c8:	298b883a 	add	r5,r5,r6
 40034cc:	38c6983a 	sll	r3,r7,r3
 40034d0:	29c00017 	ldw	r7,0(r5)
 40034d4:	2a7ffe04 	addi	r9,r5,-8
 40034d8:	1886b03a 	or	r3,r3,r2
 40034dc:	82400315 	stw	r9,12(r16)
 40034e0:	81c00215 	stw	r7,8(r16)
 40034e4:	30c00115 	stw	r3,4(r6)
 40034e8:	2c000015 	stw	r16,0(r5)
 40034ec:	3c000315 	stw	r16,12(r7)
 40034f0:	2005d0ba 	srai	r2,r4,2
 40034f4:	01400044 	movi	r5,1
 40034f8:	288a983a 	sll	r5,r5,r2
 40034fc:	19406f36 	bltu	r3,r5,40036bc <_malloc_r+0x324>
 4003500:	28c4703a 	and	r2,r5,r3
 4003504:	10000a1e 	bne	r2,zero,4003530 <_malloc_r+0x198>
 4003508:	00bfff04 	movi	r2,-4
 400350c:	294b883a 	add	r5,r5,r5
 4003510:	2088703a 	and	r4,r4,r2
 4003514:	28c4703a 	and	r2,r5,r3
 4003518:	21000104 	addi	r4,r4,4
 400351c:	1000041e 	bne	r2,zero,4003530 <_malloc_r+0x198>
 4003520:	294b883a 	add	r5,r5,r5
 4003524:	28c4703a 	and	r2,r5,r3
 4003528:	21000104 	addi	r4,r4,4
 400352c:	103ffc26 	beq	r2,zero,4003520 <__alt_data_end+0xfc003520>
 4003530:	02bfff04 	movi	r10,-4
 4003534:	024003c4 	movi	r9,15
 4003538:	21800044 	addi	r6,r4,1
 400353c:	318d883a 	add	r6,r6,r6
 4003540:	318d883a 	add	r6,r6,r6
 4003544:	318d883a 	add	r6,r6,r6
 4003548:	998d883a 	add	r6,r19,r6
 400354c:	333ffe04 	addi	r12,r6,-8
 4003550:	2017883a 	mov	r11,r4
 4003554:	31800104 	addi	r6,r6,4
 4003558:	34000017 	ldw	r16,0(r6)
 400355c:	31fffd04 	addi	r7,r6,-12
 4003560:	81c0041e 	bne	r16,r7,4003574 <_malloc_r+0x1dc>
 4003564:	0000fb06 	br	4003954 <_malloc_r+0x5bc>
 4003568:	1801030e 	bge	r3,zero,4003978 <_malloc_r+0x5e0>
 400356c:	84000317 	ldw	r16,12(r16)
 4003570:	81c0f826 	beq	r16,r7,4003954 <_malloc_r+0x5bc>
 4003574:	80800117 	ldw	r2,4(r16)
 4003578:	1284703a 	and	r2,r2,r10
 400357c:	1447c83a 	sub	r3,r2,r17
 4003580:	48fff90e 	bge	r9,r3,4003568 <__alt_data_end+0xfc003568>
 4003584:	80800317 	ldw	r2,12(r16)
 4003588:	81000217 	ldw	r4,8(r16)
 400358c:	89400054 	ori	r5,r17,1
 4003590:	81400115 	stw	r5,4(r16)
 4003594:	20800315 	stw	r2,12(r4)
 4003598:	11000215 	stw	r4,8(r2)
 400359c:	8463883a 	add	r17,r16,r17
 40035a0:	9c400515 	stw	r17,20(r19)
 40035a4:	9c400415 	stw	r17,16(r19)
 40035a8:	18800054 	ori	r2,r3,1
 40035ac:	88800115 	stw	r2,4(r17)
 40035b0:	8a000315 	stw	r8,12(r17)
 40035b4:	8a000215 	stw	r8,8(r17)
 40035b8:	88e3883a 	add	r17,r17,r3
 40035bc:	88c00015 	stw	r3,0(r17)
 40035c0:	9009883a 	mov	r4,r18
 40035c4:	40149780 	call	4014978 <__malloc_unlock>
 40035c8:	80800204 	addi	r2,r16,8
 40035cc:	00001b06 	br	400363c <_malloc_r+0x2a4>
 40035d0:	04400404 	movi	r17,16
 40035d4:	89402536 	bltu	r17,r5,400366c <_malloc_r+0x2d4>
 40035d8:	40149540 	call	4014954 <__malloc_lock>
 40035dc:	00800184 	movi	r2,6
 40035e0:	01000084 	movi	r4,2
 40035e4:	04c100b4 	movhi	r19,1026
 40035e8:	1085883a 	add	r2,r2,r2
 40035ec:	9ce31804 	addi	r19,r19,-29600
 40035f0:	1085883a 	add	r2,r2,r2
 40035f4:	9885883a 	add	r2,r19,r2
 40035f8:	14000117 	ldw	r16,4(r2)
 40035fc:	10fffe04 	addi	r3,r2,-8
 4003600:	80c0d926 	beq	r16,r3,4003968 <_malloc_r+0x5d0>
 4003604:	80c00117 	ldw	r3,4(r16)
 4003608:	81000317 	ldw	r4,12(r16)
 400360c:	00bfff04 	movi	r2,-4
 4003610:	1884703a 	and	r2,r3,r2
 4003614:	81400217 	ldw	r5,8(r16)
 4003618:	8085883a 	add	r2,r16,r2
 400361c:	10c00117 	ldw	r3,4(r2)
 4003620:	29000315 	stw	r4,12(r5)
 4003624:	21400215 	stw	r5,8(r4)
 4003628:	18c00054 	ori	r3,r3,1
 400362c:	10c00115 	stw	r3,4(r2)
 4003630:	9009883a 	mov	r4,r18
 4003634:	40149780 	call	4014978 <__malloc_unlock>
 4003638:	80800204 	addi	r2,r16,8
 400363c:	dfc00a17 	ldw	ra,40(sp)
 4003640:	df000917 	ldw	fp,36(sp)
 4003644:	ddc00817 	ldw	r23,32(sp)
 4003648:	dd800717 	ldw	r22,28(sp)
 400364c:	dd400617 	ldw	r21,24(sp)
 4003650:	dd000517 	ldw	r20,20(sp)
 4003654:	dcc00417 	ldw	r19,16(sp)
 4003658:	dc800317 	ldw	r18,12(sp)
 400365c:	dc400217 	ldw	r17,8(sp)
 4003660:	dc000117 	ldw	r16,4(sp)
 4003664:	dec00b04 	addi	sp,sp,44
 4003668:	f800283a 	ret
 400366c:	00800304 	movi	r2,12
 4003670:	90800015 	stw	r2,0(r18)
 4003674:	0005883a 	mov	r2,zero
 4003678:	003ff006 	br	400363c <__alt_data_end+0xfc00363c>
 400367c:	01002004 	movi	r4,128
 4003680:	02001004 	movi	r8,64
 4003684:	01c00fc4 	movi	r7,63
 4003688:	003f6106 	br	4003410 <__alt_data_end+0xfc003410>
 400368c:	4009883a 	mov	r4,r8
 4003690:	003f7506 	br	4003468 <__alt_data_end+0xfc003468>
 4003694:	81000317 	ldw	r4,12(r16)
 4003698:	003fde06 	br	4003614 <__alt_data_end+0xfc003614>
 400369c:	81c5883a 	add	r2,r16,r7
 40036a0:	11400117 	ldw	r5,4(r2)
 40036a4:	9009883a 	mov	r4,r18
 40036a8:	29400054 	ori	r5,r5,1
 40036ac:	11400115 	stw	r5,4(r2)
 40036b0:	40149780 	call	4014978 <__malloc_unlock>
 40036b4:	80800204 	addi	r2,r16,8
 40036b8:	003fe006 	br	400363c <__alt_data_end+0xfc00363c>
 40036bc:	9c000217 	ldw	r16,8(r19)
 40036c0:	00bfff04 	movi	r2,-4
 40036c4:	85800117 	ldw	r22,4(r16)
 40036c8:	b0ac703a 	and	r22,r22,r2
 40036cc:	b4400336 	bltu	r22,r17,40036dc <_malloc_r+0x344>
 40036d0:	b445c83a 	sub	r2,r22,r17
 40036d4:	00c003c4 	movi	r3,15
 40036d8:	18805d16 	blt	r3,r2,4003850 <_malloc_r+0x4b8>
 40036dc:	05c100b4 	movhi	r23,1026
 40036e0:	008100b4 	movhi	r2,1026
 40036e4:	10b03c04 	addi	r2,r2,-16144
 40036e8:	bde8de04 	addi	r23,r23,-23688
 40036ec:	15400017 	ldw	r21,0(r2)
 40036f0:	b8c00017 	ldw	r3,0(r23)
 40036f4:	00bfffc4 	movi	r2,-1
 40036f8:	858d883a 	add	r6,r16,r22
 40036fc:	8d6b883a 	add	r21,r17,r21
 4003700:	1880ea26 	beq	r3,r2,4003aac <_malloc_r+0x714>
 4003704:	ad4403c4 	addi	r21,r21,4111
 4003708:	00bc0004 	movi	r2,-4096
 400370c:	a8aa703a 	and	r21,r21,r2
 4003710:	a80b883a 	mov	r5,r21
 4003714:	9009883a 	mov	r4,r18
 4003718:	d9800015 	stw	r6,0(sp)
 400371c:	40041c00 	call	40041c0 <_sbrk_r>
 4003720:	1029883a 	mov	r20,r2
 4003724:	00bfffc4 	movi	r2,-1
 4003728:	d9800017 	ldw	r6,0(sp)
 400372c:	a080e826 	beq	r20,r2,4003ad0 <_malloc_r+0x738>
 4003730:	a180a636 	bltu	r20,r6,40039cc <_malloc_r+0x634>
 4003734:	070100b4 	movhi	fp,1026
 4003738:	e7304704 	addi	fp,fp,-16100
 400373c:	e0800017 	ldw	r2,0(fp)
 4003740:	a887883a 	add	r3,r21,r2
 4003744:	e0c00015 	stw	r3,0(fp)
 4003748:	3500e626 	beq	r6,r20,4003ae4 <_malloc_r+0x74c>
 400374c:	b9000017 	ldw	r4,0(r23)
 4003750:	00bfffc4 	movi	r2,-1
 4003754:	2080ee26 	beq	r4,r2,4003b10 <_malloc_r+0x778>
 4003758:	a185c83a 	sub	r2,r20,r6
 400375c:	10c5883a 	add	r2,r2,r3
 4003760:	e0800015 	stw	r2,0(fp)
 4003764:	a0c001cc 	andi	r3,r20,7
 4003768:	1800bc26 	beq	r3,zero,4003a5c <_malloc_r+0x6c4>
 400376c:	a0e9c83a 	sub	r20,r20,r3
 4003770:	00840204 	movi	r2,4104
 4003774:	a5000204 	addi	r20,r20,8
 4003778:	10c7c83a 	sub	r3,r2,r3
 400377c:	a545883a 	add	r2,r20,r21
 4003780:	1083ffcc 	andi	r2,r2,4095
 4003784:	18abc83a 	sub	r21,r3,r2
 4003788:	a80b883a 	mov	r5,r21
 400378c:	9009883a 	mov	r4,r18
 4003790:	40041c00 	call	40041c0 <_sbrk_r>
 4003794:	00ffffc4 	movi	r3,-1
 4003798:	10c0e126 	beq	r2,r3,4003b20 <_malloc_r+0x788>
 400379c:	1505c83a 	sub	r2,r2,r20
 40037a0:	1545883a 	add	r2,r2,r21
 40037a4:	10800054 	ori	r2,r2,1
 40037a8:	e0c00017 	ldw	r3,0(fp)
 40037ac:	9d000215 	stw	r20,8(r19)
 40037b0:	a0800115 	stw	r2,4(r20)
 40037b4:	a8c7883a 	add	r3,r21,r3
 40037b8:	e0c00015 	stw	r3,0(fp)
 40037bc:	84c00e26 	beq	r16,r19,40037f8 <_malloc_r+0x460>
 40037c0:	018003c4 	movi	r6,15
 40037c4:	3580a72e 	bgeu	r6,r22,4003a64 <_malloc_r+0x6cc>
 40037c8:	81400117 	ldw	r5,4(r16)
 40037cc:	013ffe04 	movi	r4,-8
 40037d0:	b0bffd04 	addi	r2,r22,-12
 40037d4:	1104703a 	and	r2,r2,r4
 40037d8:	2900004c 	andi	r4,r5,1
 40037dc:	2088b03a 	or	r4,r4,r2
 40037e0:	81000115 	stw	r4,4(r16)
 40037e4:	01400144 	movi	r5,5
 40037e8:	8089883a 	add	r4,r16,r2
 40037ec:	21400115 	stw	r5,4(r4)
 40037f0:	21400215 	stw	r5,8(r4)
 40037f4:	3080cd36 	bltu	r6,r2,4003b2c <_malloc_r+0x794>
 40037f8:	008100b4 	movhi	r2,1026
 40037fc:	10b03b04 	addi	r2,r2,-16148
 4003800:	11000017 	ldw	r4,0(r2)
 4003804:	20c0012e 	bgeu	r4,r3,400380c <_malloc_r+0x474>
 4003808:	10c00015 	stw	r3,0(r2)
 400380c:	008100b4 	movhi	r2,1026
 4003810:	10b03a04 	addi	r2,r2,-16152
 4003814:	11000017 	ldw	r4,0(r2)
 4003818:	9c000217 	ldw	r16,8(r19)
 400381c:	20c0012e 	bgeu	r4,r3,4003824 <_malloc_r+0x48c>
 4003820:	10c00015 	stw	r3,0(r2)
 4003824:	80c00117 	ldw	r3,4(r16)
 4003828:	00bfff04 	movi	r2,-4
 400382c:	1886703a 	and	r3,r3,r2
 4003830:	1c45c83a 	sub	r2,r3,r17
 4003834:	1c400236 	bltu	r3,r17,4003840 <_malloc_r+0x4a8>
 4003838:	00c003c4 	movi	r3,15
 400383c:	18800416 	blt	r3,r2,4003850 <_malloc_r+0x4b8>
 4003840:	9009883a 	mov	r4,r18
 4003844:	40149780 	call	4014978 <__malloc_unlock>
 4003848:	0005883a 	mov	r2,zero
 400384c:	003f7b06 	br	400363c <__alt_data_end+0xfc00363c>
 4003850:	88c00054 	ori	r3,r17,1
 4003854:	80c00115 	stw	r3,4(r16)
 4003858:	8463883a 	add	r17,r16,r17
 400385c:	10800054 	ori	r2,r2,1
 4003860:	9c400215 	stw	r17,8(r19)
 4003864:	88800115 	stw	r2,4(r17)
 4003868:	9009883a 	mov	r4,r18
 400386c:	40149780 	call	4014978 <__malloc_unlock>
 4003870:	80800204 	addi	r2,r16,8
 4003874:	003f7106 	br	400363c <__alt_data_end+0xfc00363c>
 4003878:	00c00504 	movi	r3,20
 400387c:	18804a2e 	bgeu	r3,r2,40039a8 <_malloc_r+0x610>
 4003880:	00c01504 	movi	r3,84
 4003884:	18806e36 	bltu	r3,r2,4003a40 <_malloc_r+0x6a8>
 4003888:	8804d33a 	srli	r2,r17,12
 400388c:	12001bc4 	addi	r8,r2,111
 4003890:	11c01b84 	addi	r7,r2,110
 4003894:	4209883a 	add	r4,r8,r8
 4003898:	003edd06 	br	4003410 <__alt_data_end+0xfc003410>
 400389c:	3804d27a 	srli	r2,r7,9
 40038a0:	00c00104 	movi	r3,4
 40038a4:	1880442e 	bgeu	r3,r2,40039b8 <_malloc_r+0x620>
 40038a8:	00c00504 	movi	r3,20
 40038ac:	18808136 	bltu	r3,r2,4003ab4 <_malloc_r+0x71c>
 40038b0:	11401704 	addi	r5,r2,92
 40038b4:	10c016c4 	addi	r3,r2,91
 40038b8:	294b883a 	add	r5,r5,r5
 40038bc:	294b883a 	add	r5,r5,r5
 40038c0:	294b883a 	add	r5,r5,r5
 40038c4:	994b883a 	add	r5,r19,r5
 40038c8:	28800017 	ldw	r2,0(r5)
 40038cc:	018100b4 	movhi	r6,1026
 40038d0:	297ffe04 	addi	r5,r5,-8
 40038d4:	31a31804 	addi	r6,r6,-29600
 40038d8:	28806526 	beq	r5,r2,4003a70 <_malloc_r+0x6d8>
 40038dc:	01bfff04 	movi	r6,-4
 40038e0:	10c00117 	ldw	r3,4(r2)
 40038e4:	1986703a 	and	r3,r3,r6
 40038e8:	38c0022e 	bgeu	r7,r3,40038f4 <_malloc_r+0x55c>
 40038ec:	10800217 	ldw	r2,8(r2)
 40038f0:	28bffb1e 	bne	r5,r2,40038e0 <__alt_data_end+0xfc0038e0>
 40038f4:	11400317 	ldw	r5,12(r2)
 40038f8:	98c00117 	ldw	r3,4(r19)
 40038fc:	81400315 	stw	r5,12(r16)
 4003900:	80800215 	stw	r2,8(r16)
 4003904:	2c000215 	stw	r16,8(r5)
 4003908:	14000315 	stw	r16,12(r2)
 400390c:	003ef806 	br	40034f0 <__alt_data_end+0xfc0034f0>
 4003910:	88c00054 	ori	r3,r17,1
 4003914:	80c00115 	stw	r3,4(r16)
 4003918:	8463883a 	add	r17,r16,r17
 400391c:	34400515 	stw	r17,20(r6)
 4003920:	34400415 	stw	r17,16(r6)
 4003924:	10c00054 	ori	r3,r2,1
 4003928:	8a000315 	stw	r8,12(r17)
 400392c:	8a000215 	stw	r8,8(r17)
 4003930:	88c00115 	stw	r3,4(r17)
 4003934:	88a3883a 	add	r17,r17,r2
 4003938:	88800015 	stw	r2,0(r17)
 400393c:	9009883a 	mov	r4,r18
 4003940:	40149780 	call	4014978 <__malloc_unlock>
 4003944:	80800204 	addi	r2,r16,8
 4003948:	003f3c06 	br	400363c <__alt_data_end+0xfc00363c>
 400394c:	30c00117 	ldw	r3,4(r6)
 4003950:	003ee706 	br	40034f0 <__alt_data_end+0xfc0034f0>
 4003954:	5ac00044 	addi	r11,r11,1
 4003958:	588000cc 	andi	r2,r11,3
 400395c:	31800204 	addi	r6,r6,8
 4003960:	103efd1e 	bne	r2,zero,4003558 <__alt_data_end+0xfc003558>
 4003964:	00002406 	br	40039f8 <_malloc_r+0x660>
 4003968:	14000317 	ldw	r16,12(r2)
 400396c:	143f251e 	bne	r2,r16,4003604 <__alt_data_end+0xfc003604>
 4003970:	21000084 	addi	r4,r4,2
 4003974:	003ebc06 	br	4003468 <__alt_data_end+0xfc003468>
 4003978:	8085883a 	add	r2,r16,r2
 400397c:	10c00117 	ldw	r3,4(r2)
 4003980:	81000317 	ldw	r4,12(r16)
 4003984:	81400217 	ldw	r5,8(r16)
 4003988:	18c00054 	ori	r3,r3,1
 400398c:	10c00115 	stw	r3,4(r2)
 4003990:	29000315 	stw	r4,12(r5)
 4003994:	21400215 	stw	r5,8(r4)
 4003998:	9009883a 	mov	r4,r18
 400399c:	40149780 	call	4014978 <__malloc_unlock>
 40039a0:	80800204 	addi	r2,r16,8
 40039a4:	003f2506 	br	400363c <__alt_data_end+0xfc00363c>
 40039a8:	12001704 	addi	r8,r2,92
 40039ac:	11c016c4 	addi	r7,r2,91
 40039b0:	4209883a 	add	r4,r8,r8
 40039b4:	003e9606 	br	4003410 <__alt_data_end+0xfc003410>
 40039b8:	3804d1ba 	srli	r2,r7,6
 40039bc:	11400e44 	addi	r5,r2,57
 40039c0:	10c00e04 	addi	r3,r2,56
 40039c4:	294b883a 	add	r5,r5,r5
 40039c8:	003fbc06 	br	40038bc <__alt_data_end+0xfc0038bc>
 40039cc:	84ff5926 	beq	r16,r19,4003734 <__alt_data_end+0xfc003734>
 40039d0:	008100b4 	movhi	r2,1026
 40039d4:	10a31804 	addi	r2,r2,-29600
 40039d8:	14000217 	ldw	r16,8(r2)
 40039dc:	00bfff04 	movi	r2,-4
 40039e0:	80c00117 	ldw	r3,4(r16)
 40039e4:	1886703a 	and	r3,r3,r2
 40039e8:	003f9106 	br	4003830 <__alt_data_end+0xfc003830>
 40039ec:	60800217 	ldw	r2,8(r12)
 40039f0:	213fffc4 	addi	r4,r4,-1
 40039f4:	1300651e 	bne	r2,r12,4003b8c <_malloc_r+0x7f4>
 40039f8:	208000cc 	andi	r2,r4,3
 40039fc:	633ffe04 	addi	r12,r12,-8
 4003a00:	103ffa1e 	bne	r2,zero,40039ec <__alt_data_end+0xfc0039ec>
 4003a04:	98800117 	ldw	r2,4(r19)
 4003a08:	0146303a 	nor	r3,zero,r5
 4003a0c:	1884703a 	and	r2,r3,r2
 4003a10:	98800115 	stw	r2,4(r19)
 4003a14:	294b883a 	add	r5,r5,r5
 4003a18:	117f2836 	bltu	r2,r5,40036bc <__alt_data_end+0xfc0036bc>
 4003a1c:	283f2726 	beq	r5,zero,40036bc <__alt_data_end+0xfc0036bc>
 4003a20:	2886703a 	and	r3,r5,r2
 4003a24:	5809883a 	mov	r4,r11
 4003a28:	183ec31e 	bne	r3,zero,4003538 <__alt_data_end+0xfc003538>
 4003a2c:	294b883a 	add	r5,r5,r5
 4003a30:	2886703a 	and	r3,r5,r2
 4003a34:	21000104 	addi	r4,r4,4
 4003a38:	183ffc26 	beq	r3,zero,4003a2c <__alt_data_end+0xfc003a2c>
 4003a3c:	003ebe06 	br	4003538 <__alt_data_end+0xfc003538>
 4003a40:	00c05504 	movi	r3,340
 4003a44:	18801236 	bltu	r3,r2,4003a90 <_malloc_r+0x6f8>
 4003a48:	8804d3fa 	srli	r2,r17,15
 4003a4c:	12001e04 	addi	r8,r2,120
 4003a50:	11c01dc4 	addi	r7,r2,119
 4003a54:	4209883a 	add	r4,r8,r8
 4003a58:	003e6d06 	br	4003410 <__alt_data_end+0xfc003410>
 4003a5c:	00c40004 	movi	r3,4096
 4003a60:	003f4606 	br	400377c <__alt_data_end+0xfc00377c>
 4003a64:	00800044 	movi	r2,1
 4003a68:	a0800115 	stw	r2,4(r20)
 4003a6c:	003f7406 	br	4003840 <__alt_data_end+0xfc003840>
 4003a70:	1805d0ba 	srai	r2,r3,2
 4003a74:	01c00044 	movi	r7,1
 4003a78:	30c00117 	ldw	r3,4(r6)
 4003a7c:	388e983a 	sll	r7,r7,r2
 4003a80:	2805883a 	mov	r2,r5
 4003a84:	38c6b03a 	or	r3,r7,r3
 4003a88:	30c00115 	stw	r3,4(r6)
 4003a8c:	003f9b06 	br	40038fc <__alt_data_end+0xfc0038fc>
 4003a90:	00c15504 	movi	r3,1364
 4003a94:	18801a36 	bltu	r3,r2,4003b00 <_malloc_r+0x768>
 4003a98:	8804d4ba 	srli	r2,r17,18
 4003a9c:	12001f44 	addi	r8,r2,125
 4003aa0:	11c01f04 	addi	r7,r2,124
 4003aa4:	4209883a 	add	r4,r8,r8
 4003aa8:	003e5906 	br	4003410 <__alt_data_end+0xfc003410>
 4003aac:	ad400404 	addi	r21,r21,16
 4003ab0:	003f1706 	br	4003710 <__alt_data_end+0xfc003710>
 4003ab4:	00c01504 	movi	r3,84
 4003ab8:	18802336 	bltu	r3,r2,4003b48 <_malloc_r+0x7b0>
 4003abc:	3804d33a 	srli	r2,r7,12
 4003ac0:	11401bc4 	addi	r5,r2,111
 4003ac4:	10c01b84 	addi	r3,r2,110
 4003ac8:	294b883a 	add	r5,r5,r5
 4003acc:	003f7b06 	br	40038bc <__alt_data_end+0xfc0038bc>
 4003ad0:	9c000217 	ldw	r16,8(r19)
 4003ad4:	00bfff04 	movi	r2,-4
 4003ad8:	80c00117 	ldw	r3,4(r16)
 4003adc:	1886703a 	and	r3,r3,r2
 4003ae0:	003f5306 	br	4003830 <__alt_data_end+0xfc003830>
 4003ae4:	3083ffcc 	andi	r2,r6,4095
 4003ae8:	103f181e 	bne	r2,zero,400374c <__alt_data_end+0xfc00374c>
 4003aec:	99000217 	ldw	r4,8(r19)
 4003af0:	b545883a 	add	r2,r22,r21
 4003af4:	10800054 	ori	r2,r2,1
 4003af8:	20800115 	stw	r2,4(r4)
 4003afc:	003f3e06 	br	40037f8 <__alt_data_end+0xfc0037f8>
 4003b00:	01003f84 	movi	r4,254
 4003b04:	02001fc4 	movi	r8,127
 4003b08:	01c01f84 	movi	r7,126
 4003b0c:	003e4006 	br	4003410 <__alt_data_end+0xfc003410>
 4003b10:	008100b4 	movhi	r2,1026
 4003b14:	10a8de04 	addi	r2,r2,-23688
 4003b18:	15000015 	stw	r20,0(r2)
 4003b1c:	003f1106 	br	4003764 <__alt_data_end+0xfc003764>
 4003b20:	00800044 	movi	r2,1
 4003b24:	002b883a 	mov	r21,zero
 4003b28:	003f1f06 	br	40037a8 <__alt_data_end+0xfc0037a8>
 4003b2c:	81400204 	addi	r5,r16,8
 4003b30:	9009883a 	mov	r4,r18
 4003b34:	40026380 	call	4002638 <_free_r>
 4003b38:	008100b4 	movhi	r2,1026
 4003b3c:	10b04704 	addi	r2,r2,-16100
 4003b40:	10c00017 	ldw	r3,0(r2)
 4003b44:	003f2c06 	br	40037f8 <__alt_data_end+0xfc0037f8>
 4003b48:	00c05504 	movi	r3,340
 4003b4c:	18800536 	bltu	r3,r2,4003b64 <_malloc_r+0x7cc>
 4003b50:	3804d3fa 	srli	r2,r7,15
 4003b54:	11401e04 	addi	r5,r2,120
 4003b58:	10c01dc4 	addi	r3,r2,119
 4003b5c:	294b883a 	add	r5,r5,r5
 4003b60:	003f5606 	br	40038bc <__alt_data_end+0xfc0038bc>
 4003b64:	00c15504 	movi	r3,1364
 4003b68:	18800536 	bltu	r3,r2,4003b80 <_malloc_r+0x7e8>
 4003b6c:	3804d4ba 	srli	r2,r7,18
 4003b70:	11401f44 	addi	r5,r2,125
 4003b74:	10c01f04 	addi	r3,r2,124
 4003b78:	294b883a 	add	r5,r5,r5
 4003b7c:	003f4f06 	br	40038bc <__alt_data_end+0xfc0038bc>
 4003b80:	01403f84 	movi	r5,254
 4003b84:	00c01f84 	movi	r3,126
 4003b88:	003f4c06 	br	40038bc <__alt_data_end+0xfc0038bc>
 4003b8c:	98800117 	ldw	r2,4(r19)
 4003b90:	003fa006 	br	4003a14 <__alt_data_end+0xfc003a14>
 4003b94:	8808d0fa 	srli	r4,r17,3
 4003b98:	20800044 	addi	r2,r4,1
 4003b9c:	1085883a 	add	r2,r2,r2
 4003ba0:	003e9006 	br	40035e4 <__alt_data_end+0xfc0035e4>

04003ba4 <memcpy>:
 4003ba4:	defffd04 	addi	sp,sp,-12
 4003ba8:	dfc00215 	stw	ra,8(sp)
 4003bac:	dc400115 	stw	r17,4(sp)
 4003bb0:	dc000015 	stw	r16,0(sp)
 4003bb4:	00c003c4 	movi	r3,15
 4003bb8:	2005883a 	mov	r2,r4
 4003bbc:	1980452e 	bgeu	r3,r6,4003cd4 <memcpy+0x130>
 4003bc0:	2906b03a 	or	r3,r5,r4
 4003bc4:	18c000cc 	andi	r3,r3,3
 4003bc8:	1800441e 	bne	r3,zero,4003cdc <memcpy+0x138>
 4003bcc:	347ffc04 	addi	r17,r6,-16
 4003bd0:	8822d13a 	srli	r17,r17,4
 4003bd4:	28c00104 	addi	r3,r5,4
 4003bd8:	23400104 	addi	r13,r4,4
 4003bdc:	8820913a 	slli	r16,r17,4
 4003be0:	2b000204 	addi	r12,r5,8
 4003be4:	22c00204 	addi	r11,r4,8
 4003be8:	84000504 	addi	r16,r16,20
 4003bec:	2a800304 	addi	r10,r5,12
 4003bf0:	22400304 	addi	r9,r4,12
 4003bf4:	2c21883a 	add	r16,r5,r16
 4003bf8:	2811883a 	mov	r8,r5
 4003bfc:	200f883a 	mov	r7,r4
 4003c00:	41000017 	ldw	r4,0(r8)
 4003c04:	1fc00017 	ldw	ra,0(r3)
 4003c08:	63c00017 	ldw	r15,0(r12)
 4003c0c:	39000015 	stw	r4,0(r7)
 4003c10:	53800017 	ldw	r14,0(r10)
 4003c14:	6fc00015 	stw	ra,0(r13)
 4003c18:	5bc00015 	stw	r15,0(r11)
 4003c1c:	4b800015 	stw	r14,0(r9)
 4003c20:	18c00404 	addi	r3,r3,16
 4003c24:	39c00404 	addi	r7,r7,16
 4003c28:	42000404 	addi	r8,r8,16
 4003c2c:	6b400404 	addi	r13,r13,16
 4003c30:	63000404 	addi	r12,r12,16
 4003c34:	5ac00404 	addi	r11,r11,16
 4003c38:	52800404 	addi	r10,r10,16
 4003c3c:	4a400404 	addi	r9,r9,16
 4003c40:	1c3fef1e 	bne	r3,r16,4003c00 <__alt_data_end+0xfc003c00>
 4003c44:	89c00044 	addi	r7,r17,1
 4003c48:	380e913a 	slli	r7,r7,4
 4003c4c:	310003cc 	andi	r4,r6,15
 4003c50:	02c000c4 	movi	r11,3
 4003c54:	11c7883a 	add	r3,r2,r7
 4003c58:	29cb883a 	add	r5,r5,r7
 4003c5c:	5900212e 	bgeu	r11,r4,4003ce4 <memcpy+0x140>
 4003c60:	1813883a 	mov	r9,r3
 4003c64:	2811883a 	mov	r8,r5
 4003c68:	200f883a 	mov	r7,r4
 4003c6c:	42800017 	ldw	r10,0(r8)
 4003c70:	4a400104 	addi	r9,r9,4
 4003c74:	39ffff04 	addi	r7,r7,-4
 4003c78:	4abfff15 	stw	r10,-4(r9)
 4003c7c:	42000104 	addi	r8,r8,4
 4003c80:	59fffa36 	bltu	r11,r7,4003c6c <__alt_data_end+0xfc003c6c>
 4003c84:	213fff04 	addi	r4,r4,-4
 4003c88:	2008d0ba 	srli	r4,r4,2
 4003c8c:	318000cc 	andi	r6,r6,3
 4003c90:	21000044 	addi	r4,r4,1
 4003c94:	2109883a 	add	r4,r4,r4
 4003c98:	2109883a 	add	r4,r4,r4
 4003c9c:	1907883a 	add	r3,r3,r4
 4003ca0:	290b883a 	add	r5,r5,r4
 4003ca4:	30000626 	beq	r6,zero,4003cc0 <memcpy+0x11c>
 4003ca8:	198d883a 	add	r6,r3,r6
 4003cac:	29c00003 	ldbu	r7,0(r5)
 4003cb0:	18c00044 	addi	r3,r3,1
 4003cb4:	29400044 	addi	r5,r5,1
 4003cb8:	19ffffc5 	stb	r7,-1(r3)
 4003cbc:	19bffb1e 	bne	r3,r6,4003cac <__alt_data_end+0xfc003cac>
 4003cc0:	dfc00217 	ldw	ra,8(sp)
 4003cc4:	dc400117 	ldw	r17,4(sp)
 4003cc8:	dc000017 	ldw	r16,0(sp)
 4003ccc:	dec00304 	addi	sp,sp,12
 4003cd0:	f800283a 	ret
 4003cd4:	2007883a 	mov	r3,r4
 4003cd8:	003ff206 	br	4003ca4 <__alt_data_end+0xfc003ca4>
 4003cdc:	2007883a 	mov	r3,r4
 4003ce0:	003ff106 	br	4003ca8 <__alt_data_end+0xfc003ca8>
 4003ce4:	200d883a 	mov	r6,r4
 4003ce8:	003fee06 	br	4003ca4 <__alt_data_end+0xfc003ca4>

04003cec <memset>:
 4003cec:	20c000cc 	andi	r3,r4,3
 4003cf0:	2005883a 	mov	r2,r4
 4003cf4:	18004426 	beq	r3,zero,4003e08 <memset+0x11c>
 4003cf8:	31ffffc4 	addi	r7,r6,-1
 4003cfc:	30004026 	beq	r6,zero,4003e00 <memset+0x114>
 4003d00:	2813883a 	mov	r9,r5
 4003d04:	200d883a 	mov	r6,r4
 4003d08:	2007883a 	mov	r3,r4
 4003d0c:	00000406 	br	4003d20 <memset+0x34>
 4003d10:	3a3fffc4 	addi	r8,r7,-1
 4003d14:	31800044 	addi	r6,r6,1
 4003d18:	38003926 	beq	r7,zero,4003e00 <memset+0x114>
 4003d1c:	400f883a 	mov	r7,r8
 4003d20:	18c00044 	addi	r3,r3,1
 4003d24:	32400005 	stb	r9,0(r6)
 4003d28:	1a0000cc 	andi	r8,r3,3
 4003d2c:	403ff81e 	bne	r8,zero,4003d10 <__alt_data_end+0xfc003d10>
 4003d30:	010000c4 	movi	r4,3
 4003d34:	21c02d2e 	bgeu	r4,r7,4003dec <memset+0x100>
 4003d38:	29003fcc 	andi	r4,r5,255
 4003d3c:	200c923a 	slli	r6,r4,8
 4003d40:	3108b03a 	or	r4,r6,r4
 4003d44:	200c943a 	slli	r6,r4,16
 4003d48:	218cb03a 	or	r6,r4,r6
 4003d4c:	010003c4 	movi	r4,15
 4003d50:	21c0182e 	bgeu	r4,r7,4003db4 <memset+0xc8>
 4003d54:	3b3ffc04 	addi	r12,r7,-16
 4003d58:	6018d13a 	srli	r12,r12,4
 4003d5c:	1a000104 	addi	r8,r3,4
 4003d60:	1ac00204 	addi	r11,r3,8
 4003d64:	6008913a 	slli	r4,r12,4
 4003d68:	1a800304 	addi	r10,r3,12
 4003d6c:	1813883a 	mov	r9,r3
 4003d70:	21000504 	addi	r4,r4,20
 4003d74:	1909883a 	add	r4,r3,r4
 4003d78:	49800015 	stw	r6,0(r9)
 4003d7c:	41800015 	stw	r6,0(r8)
 4003d80:	59800015 	stw	r6,0(r11)
 4003d84:	51800015 	stw	r6,0(r10)
 4003d88:	42000404 	addi	r8,r8,16
 4003d8c:	4a400404 	addi	r9,r9,16
 4003d90:	5ac00404 	addi	r11,r11,16
 4003d94:	52800404 	addi	r10,r10,16
 4003d98:	413ff71e 	bne	r8,r4,4003d78 <__alt_data_end+0xfc003d78>
 4003d9c:	63000044 	addi	r12,r12,1
 4003da0:	6018913a 	slli	r12,r12,4
 4003da4:	39c003cc 	andi	r7,r7,15
 4003da8:	010000c4 	movi	r4,3
 4003dac:	1b07883a 	add	r3,r3,r12
 4003db0:	21c00e2e 	bgeu	r4,r7,4003dec <memset+0x100>
 4003db4:	1813883a 	mov	r9,r3
 4003db8:	3811883a 	mov	r8,r7
 4003dbc:	010000c4 	movi	r4,3
 4003dc0:	49800015 	stw	r6,0(r9)
 4003dc4:	423fff04 	addi	r8,r8,-4
 4003dc8:	4a400104 	addi	r9,r9,4
 4003dcc:	223ffc36 	bltu	r4,r8,4003dc0 <__alt_data_end+0xfc003dc0>
 4003dd0:	393fff04 	addi	r4,r7,-4
 4003dd4:	2008d0ba 	srli	r4,r4,2
 4003dd8:	39c000cc 	andi	r7,r7,3
 4003ddc:	21000044 	addi	r4,r4,1
 4003de0:	2109883a 	add	r4,r4,r4
 4003de4:	2109883a 	add	r4,r4,r4
 4003de8:	1907883a 	add	r3,r3,r4
 4003dec:	38000526 	beq	r7,zero,4003e04 <memset+0x118>
 4003df0:	19cf883a 	add	r7,r3,r7
 4003df4:	19400005 	stb	r5,0(r3)
 4003df8:	18c00044 	addi	r3,r3,1
 4003dfc:	38fffd1e 	bne	r7,r3,4003df4 <__alt_data_end+0xfc003df4>
 4003e00:	f800283a 	ret
 4003e04:	f800283a 	ret
 4003e08:	2007883a 	mov	r3,r4
 4003e0c:	300f883a 	mov	r7,r6
 4003e10:	003fc706 	br	4003d30 <__alt_data_end+0xfc003d30>

04003e14 <_open_r>:
 4003e14:	defffd04 	addi	sp,sp,-12
 4003e18:	2805883a 	mov	r2,r5
 4003e1c:	dc000015 	stw	r16,0(sp)
 4003e20:	040100b4 	movhi	r16,1026
 4003e24:	dc400115 	stw	r17,4(sp)
 4003e28:	300b883a 	mov	r5,r6
 4003e2c:	84303904 	addi	r16,r16,-16156
 4003e30:	2023883a 	mov	r17,r4
 4003e34:	380d883a 	mov	r6,r7
 4003e38:	1009883a 	mov	r4,r2
 4003e3c:	dfc00215 	stw	ra,8(sp)
 4003e40:	80000015 	stw	zero,0(r16)
 4003e44:	4014ac40 	call	4014ac4 <open>
 4003e48:	00ffffc4 	movi	r3,-1
 4003e4c:	10c00526 	beq	r2,r3,4003e64 <_open_r+0x50>
 4003e50:	dfc00217 	ldw	ra,8(sp)
 4003e54:	dc400117 	ldw	r17,4(sp)
 4003e58:	dc000017 	ldw	r16,0(sp)
 4003e5c:	dec00304 	addi	sp,sp,12
 4003e60:	f800283a 	ret
 4003e64:	80c00017 	ldw	r3,0(r16)
 4003e68:	183ff926 	beq	r3,zero,4003e50 <__alt_data_end+0xfc003e50>
 4003e6c:	88c00015 	stw	r3,0(r17)
 4003e70:	003ff706 	br	4003e50 <__alt_data_end+0xfc003e50>

04003e74 <_puts_r>:
 4003e74:	defff604 	addi	sp,sp,-40
 4003e78:	dc000715 	stw	r16,28(sp)
 4003e7c:	2021883a 	mov	r16,r4
 4003e80:	2809883a 	mov	r4,r5
 4003e84:	dc400815 	stw	r17,32(sp)
 4003e88:	dfc00915 	stw	ra,36(sp)
 4003e8c:	2823883a 	mov	r17,r5
 4003e90:	40044d40 	call	40044d4 <strlen>
 4003e94:	10c00044 	addi	r3,r2,1
 4003e98:	d8800115 	stw	r2,4(sp)
 4003e9c:	008100b4 	movhi	r2,1026
 4003ea0:	10a00404 	addi	r2,r2,-32752
 4003ea4:	d8800215 	stw	r2,8(sp)
 4003ea8:	00800044 	movi	r2,1
 4003eac:	d8800315 	stw	r2,12(sp)
 4003eb0:	00800084 	movi	r2,2
 4003eb4:	dc400015 	stw	r17,0(sp)
 4003eb8:	d8c00615 	stw	r3,24(sp)
 4003ebc:	dec00415 	stw	sp,16(sp)
 4003ec0:	d8800515 	stw	r2,20(sp)
 4003ec4:	80000226 	beq	r16,zero,4003ed0 <_puts_r+0x5c>
 4003ec8:	80800e17 	ldw	r2,56(r16)
 4003ecc:	10001426 	beq	r2,zero,4003f20 <_puts_r+0xac>
 4003ed0:	81400217 	ldw	r5,8(r16)
 4003ed4:	2880030b 	ldhu	r2,12(r5)
 4003ed8:	10c8000c 	andi	r3,r2,8192
 4003edc:	1800061e 	bne	r3,zero,4003ef8 <_puts_r+0x84>
 4003ee0:	29001917 	ldw	r4,100(r5)
 4003ee4:	00f7ffc4 	movi	r3,-8193
 4003ee8:	10880014 	ori	r2,r2,8192
 4003eec:	20c6703a 	and	r3,r4,r3
 4003ef0:	2880030d 	sth	r2,12(r5)
 4003ef4:	28c01915 	stw	r3,100(r5)
 4003ef8:	d9800404 	addi	r6,sp,16
 4003efc:	8009883a 	mov	r4,r16
 4003f00:	40063a80 	call	40063a8 <__sfvwrite_r>
 4003f04:	1000091e 	bne	r2,zero,4003f2c <_puts_r+0xb8>
 4003f08:	00800284 	movi	r2,10
 4003f0c:	dfc00917 	ldw	ra,36(sp)
 4003f10:	dc400817 	ldw	r17,32(sp)
 4003f14:	dc000717 	ldw	r16,28(sp)
 4003f18:	dec00a04 	addi	sp,sp,40
 4003f1c:	f800283a 	ret
 4003f20:	8009883a 	mov	r4,r16
 4003f24:	40021480 	call	4002148 <__sinit>
 4003f28:	003fe906 	br	4003ed0 <__alt_data_end+0xfc003ed0>
 4003f2c:	00bfffc4 	movi	r2,-1
 4003f30:	003ff606 	br	4003f0c <__alt_data_end+0xfc003f0c>

04003f34 <puts>:
 4003f34:	008100b4 	movhi	r2,1026
 4003f38:	10a8dd04 	addi	r2,r2,-23692
 4003f3c:	200b883a 	mov	r5,r4
 4003f40:	11000017 	ldw	r4,0(r2)
 4003f44:	4003e741 	jmpi	4003e74 <_puts_r>

04003f48 <lflush>:
 4003f48:	2080030b 	ldhu	r2,12(r4)
 4003f4c:	00c00244 	movi	r3,9
 4003f50:	1080024c 	andi	r2,r2,9
 4003f54:	10c00226 	beq	r2,r3,4003f60 <lflush+0x18>
 4003f58:	0005883a 	mov	r2,zero
 4003f5c:	f800283a 	ret
 4003f60:	4001db81 	jmpi	4001db8 <fflush>

04003f64 <__srefill_r>:
 4003f64:	defffc04 	addi	sp,sp,-16
 4003f68:	dc400115 	stw	r17,4(sp)
 4003f6c:	dc000015 	stw	r16,0(sp)
 4003f70:	dfc00315 	stw	ra,12(sp)
 4003f74:	dc800215 	stw	r18,8(sp)
 4003f78:	2023883a 	mov	r17,r4
 4003f7c:	2821883a 	mov	r16,r5
 4003f80:	20000226 	beq	r4,zero,4003f8c <__srefill_r+0x28>
 4003f84:	20800e17 	ldw	r2,56(r4)
 4003f88:	10003c26 	beq	r2,zero,400407c <__srefill_r+0x118>
 4003f8c:	80c0030b 	ldhu	r3,12(r16)
 4003f90:	1908000c 	andi	r4,r3,8192
 4003f94:	1805883a 	mov	r2,r3
 4003f98:	2000071e 	bne	r4,zero,4003fb8 <__srefill_r+0x54>
 4003f9c:	81001917 	ldw	r4,100(r16)
 4003fa0:	18880014 	ori	r2,r3,8192
 4003fa4:	00f7ffc4 	movi	r3,-8193
 4003fa8:	20c8703a 	and	r4,r4,r3
 4003fac:	8080030d 	sth	r2,12(r16)
 4003fb0:	1007883a 	mov	r3,r2
 4003fb4:	81001915 	stw	r4,100(r16)
 4003fb8:	80000115 	stw	zero,4(r16)
 4003fbc:	1100080c 	andi	r4,r2,32
 4003fc0:	2000571e 	bne	r4,zero,4004120 <__srefill_r+0x1bc>
 4003fc4:	1100010c 	andi	r4,r2,4
 4003fc8:	20001f26 	beq	r4,zero,4004048 <__srefill_r+0xe4>
 4003fcc:	81400c17 	ldw	r5,48(r16)
 4003fd0:	28000826 	beq	r5,zero,4003ff4 <__srefill_r+0x90>
 4003fd4:	80801004 	addi	r2,r16,64
 4003fd8:	28800226 	beq	r5,r2,4003fe4 <__srefill_r+0x80>
 4003fdc:	8809883a 	mov	r4,r17
 4003fe0:	40026380 	call	4002638 <_free_r>
 4003fe4:	80800f17 	ldw	r2,60(r16)
 4003fe8:	80000c15 	stw	zero,48(r16)
 4003fec:	80800115 	stw	r2,4(r16)
 4003ff0:	1000391e 	bne	r2,zero,40040d8 <__srefill_r+0x174>
 4003ff4:	80800417 	ldw	r2,16(r16)
 4003ff8:	10004b26 	beq	r2,zero,4004128 <__srefill_r+0x1c4>
 4003ffc:	8480030b 	ldhu	r18,12(r16)
 4004000:	908000cc 	andi	r2,r18,3
 4004004:	10001f1e 	bne	r2,zero,4004084 <__srefill_r+0x120>
 4004008:	81800417 	ldw	r6,16(r16)
 400400c:	80800817 	ldw	r2,32(r16)
 4004010:	81c00517 	ldw	r7,20(r16)
 4004014:	81400717 	ldw	r5,28(r16)
 4004018:	81800015 	stw	r6,0(r16)
 400401c:	8809883a 	mov	r4,r17
 4004020:	103ee83a 	callr	r2
 4004024:	80800115 	stw	r2,4(r16)
 4004028:	00800e0e 	bge	zero,r2,4004064 <__srefill_r+0x100>
 400402c:	0005883a 	mov	r2,zero
 4004030:	dfc00317 	ldw	ra,12(sp)
 4004034:	dc800217 	ldw	r18,8(sp)
 4004038:	dc400117 	ldw	r17,4(sp)
 400403c:	dc000017 	ldw	r16,0(sp)
 4004040:	dec00404 	addi	sp,sp,16
 4004044:	f800283a 	ret
 4004048:	1100040c 	andi	r4,r2,16
 400404c:	20003026 	beq	r4,zero,4004110 <__srefill_r+0x1ac>
 4004050:	1080020c 	andi	r2,r2,8
 4004054:	1000241e 	bne	r2,zero,40040e8 <__srefill_r+0x184>
 4004058:	18c00114 	ori	r3,r3,4
 400405c:	80c0030d 	sth	r3,12(r16)
 4004060:	003fe406 	br	4003ff4 <__alt_data_end+0xfc003ff4>
 4004064:	80c0030b 	ldhu	r3,12(r16)
 4004068:	1000161e 	bne	r2,zero,40040c4 <__srefill_r+0x160>
 400406c:	18c00814 	ori	r3,r3,32
 4004070:	00bfffc4 	movi	r2,-1
 4004074:	80c0030d 	sth	r3,12(r16)
 4004078:	003fed06 	br	4004030 <__alt_data_end+0xfc004030>
 400407c:	40021480 	call	4002148 <__sinit>
 4004080:	003fc206 	br	4003f8c <__alt_data_end+0xfc003f8c>
 4004084:	008100b4 	movhi	r2,1026
 4004088:	10a8dc04 	addi	r2,r2,-23696
 400408c:	11000017 	ldw	r4,0(r2)
 4004090:	01410034 	movhi	r5,1024
 4004094:	00800044 	movi	r2,1
 4004098:	294fd204 	addi	r5,r5,16200
 400409c:	8080030d 	sth	r2,12(r16)
 40040a0:	4002e240 	call	4002e24 <_fwalk>
 40040a4:	00800244 	movi	r2,9
 40040a8:	8480030d 	sth	r18,12(r16)
 40040ac:	9480024c 	andi	r18,r18,9
 40040b0:	90bfd51e 	bne	r18,r2,4004008 <__alt_data_end+0xfc004008>
 40040b4:	800b883a 	mov	r5,r16
 40040b8:	8809883a 	mov	r4,r17
 40040bc:	4001b400 	call	4001b40 <__sflush_r>
 40040c0:	003fd106 	br	4004008 <__alt_data_end+0xfc004008>
 40040c4:	18c01014 	ori	r3,r3,64
 40040c8:	80000115 	stw	zero,4(r16)
 40040cc:	00bfffc4 	movi	r2,-1
 40040d0:	80c0030d 	sth	r3,12(r16)
 40040d4:	003fd606 	br	4004030 <__alt_data_end+0xfc004030>
 40040d8:	80c00e17 	ldw	r3,56(r16)
 40040dc:	0005883a 	mov	r2,zero
 40040e0:	80c00015 	stw	r3,0(r16)
 40040e4:	003fd206 	br	4004030 <__alt_data_end+0xfc004030>
 40040e8:	800b883a 	mov	r5,r16
 40040ec:	8809883a 	mov	r4,r17
 40040f0:	4001d5c0 	call	4001d5c <_fflush_r>
 40040f4:	10000a1e 	bne	r2,zero,4004120 <__srefill_r+0x1bc>
 40040f8:	8080030b 	ldhu	r2,12(r16)
 40040fc:	00fffdc4 	movi	r3,-9
 4004100:	80000215 	stw	zero,8(r16)
 4004104:	1886703a 	and	r3,r3,r2
 4004108:	80000615 	stw	zero,24(r16)
 400410c:	003fd206 	br	4004058 <__alt_data_end+0xfc004058>
 4004110:	00800244 	movi	r2,9
 4004114:	88800015 	stw	r2,0(r17)
 4004118:	18c01014 	ori	r3,r3,64
 400411c:	80c0030d 	sth	r3,12(r16)
 4004120:	00bfffc4 	movi	r2,-1
 4004124:	003fc206 	br	4004030 <__alt_data_end+0xfc004030>
 4004128:	800b883a 	mov	r5,r16
 400412c:	8809883a 	mov	r4,r17
 4004130:	40031b40 	call	40031b4 <__smakebuf_r>
 4004134:	003fb106 	br	4003ffc <__alt_data_end+0xfc003ffc>

04004138 <__srget_r>:
 4004138:	defffd04 	addi	sp,sp,-12
 400413c:	dc400115 	stw	r17,4(sp)
 4004140:	dc000015 	stw	r16,0(sp)
 4004144:	dfc00215 	stw	ra,8(sp)
 4004148:	2023883a 	mov	r17,r4
 400414c:	2821883a 	mov	r16,r5
 4004150:	20000226 	beq	r4,zero,400415c <__srget_r+0x24>
 4004154:	20800e17 	ldw	r2,56(r4)
 4004158:	10001026 	beq	r2,zero,400419c <__srget_r+0x64>
 400415c:	800b883a 	mov	r5,r16
 4004160:	8809883a 	mov	r4,r17
 4004164:	4003f640 	call	4003f64 <__srefill_r>
 4004168:	10000e1e 	bne	r2,zero,40041a4 <__srget_r+0x6c>
 400416c:	80c00017 	ldw	r3,0(r16)
 4004170:	80800117 	ldw	r2,4(r16)
 4004174:	19000044 	addi	r4,r3,1
 4004178:	10bfffc4 	addi	r2,r2,-1
 400417c:	80800115 	stw	r2,4(r16)
 4004180:	81000015 	stw	r4,0(r16)
 4004184:	18800003 	ldbu	r2,0(r3)
 4004188:	dfc00217 	ldw	ra,8(sp)
 400418c:	dc400117 	ldw	r17,4(sp)
 4004190:	dc000017 	ldw	r16,0(sp)
 4004194:	dec00304 	addi	sp,sp,12
 4004198:	f800283a 	ret
 400419c:	40021480 	call	4002148 <__sinit>
 40041a0:	003fee06 	br	400415c <__alt_data_end+0xfc00415c>
 40041a4:	00bfffc4 	movi	r2,-1
 40041a8:	003ff706 	br	4004188 <__alt_data_end+0xfc004188>

040041ac <__srget>:
 40041ac:	008100b4 	movhi	r2,1026
 40041b0:	10a8dd04 	addi	r2,r2,-23692
 40041b4:	200b883a 	mov	r5,r4
 40041b8:	11000017 	ldw	r4,0(r2)
 40041bc:	40041381 	jmpi	4004138 <__srget_r>

040041c0 <_sbrk_r>:
 40041c0:	defffd04 	addi	sp,sp,-12
 40041c4:	dc000015 	stw	r16,0(sp)
 40041c8:	040100b4 	movhi	r16,1026
 40041cc:	dc400115 	stw	r17,4(sp)
 40041d0:	84303904 	addi	r16,r16,-16156
 40041d4:	2023883a 	mov	r17,r4
 40041d8:	2809883a 	mov	r4,r5
 40041dc:	dfc00215 	stw	ra,8(sp)
 40041e0:	80000015 	stw	zero,0(r16)
 40041e4:	4014de40 	call	4014de4 <sbrk>
 40041e8:	00ffffc4 	movi	r3,-1
 40041ec:	10c00526 	beq	r2,r3,4004204 <_sbrk_r+0x44>
 40041f0:	dfc00217 	ldw	ra,8(sp)
 40041f4:	dc400117 	ldw	r17,4(sp)
 40041f8:	dc000017 	ldw	r16,0(sp)
 40041fc:	dec00304 	addi	sp,sp,12
 4004200:	f800283a 	ret
 4004204:	80c00017 	ldw	r3,0(r16)
 4004208:	183ff926 	beq	r3,zero,40041f0 <__alt_data_end+0xfc0041f0>
 400420c:	88c00015 	stw	r3,0(r17)
 4004210:	003ff706 	br	40041f0 <__alt_data_end+0xfc0041f0>

04004214 <scanf>:
 4004214:	defffc04 	addi	sp,sp,-16
 4004218:	dfc00015 	stw	ra,0(sp)
 400421c:	d9400115 	stw	r5,4(sp)
 4004220:	d9800215 	stw	r6,8(sp)
 4004224:	d9c00315 	stw	r7,12(sp)
 4004228:	008100b4 	movhi	r2,1026
 400422c:	10a8dd04 	addi	r2,r2,-23692
 4004230:	200d883a 	mov	r6,r4
 4004234:	11000017 	ldw	r4,0(r2)
 4004238:	d9c00104 	addi	r7,sp,4
 400423c:	21400117 	ldw	r5,4(r4)
 4004240:	40061fc0 	call	40061fc <_vfscanf_r>
 4004244:	dfc00017 	ldw	ra,0(sp)
 4004248:	dec00404 	addi	sp,sp,16
 400424c:	f800283a 	ret

04004250 <_scanf_r>:
 4004250:	defffd04 	addi	sp,sp,-12
 4004254:	2805883a 	mov	r2,r5
 4004258:	dfc00015 	stw	ra,0(sp)
 400425c:	d9800115 	stw	r6,4(sp)
 4004260:	d9c00215 	stw	r7,8(sp)
 4004264:	21400117 	ldw	r5,4(r4)
 4004268:	d9c00104 	addi	r7,sp,4
 400426c:	100d883a 	mov	r6,r2
 4004270:	40061fc0 	call	40061fc <_vfscanf_r>
 4004274:	dfc00017 	ldw	ra,0(sp)
 4004278:	dec00304 	addi	sp,sp,12
 400427c:	f800283a 	ret

04004280 <__sread>:
 4004280:	defffe04 	addi	sp,sp,-8
 4004284:	dc000015 	stw	r16,0(sp)
 4004288:	2821883a 	mov	r16,r5
 400428c:	2940038f 	ldh	r5,14(r5)
 4004290:	dfc00115 	stw	ra,4(sp)
 4004294:	4006e940 	call	4006e94 <_read_r>
 4004298:	10000716 	blt	r2,zero,40042b8 <__sread+0x38>
 400429c:	80c01417 	ldw	r3,80(r16)
 40042a0:	1887883a 	add	r3,r3,r2
 40042a4:	80c01415 	stw	r3,80(r16)
 40042a8:	dfc00117 	ldw	ra,4(sp)
 40042ac:	dc000017 	ldw	r16,0(sp)
 40042b0:	dec00204 	addi	sp,sp,8
 40042b4:	f800283a 	ret
 40042b8:	80c0030b 	ldhu	r3,12(r16)
 40042bc:	18fbffcc 	andi	r3,r3,61439
 40042c0:	80c0030d 	sth	r3,12(r16)
 40042c4:	dfc00117 	ldw	ra,4(sp)
 40042c8:	dc000017 	ldw	r16,0(sp)
 40042cc:	dec00204 	addi	sp,sp,8
 40042d0:	f800283a 	ret

040042d4 <__seofread>:
 40042d4:	0005883a 	mov	r2,zero
 40042d8:	f800283a 	ret

040042dc <__swrite>:
 40042dc:	2880030b 	ldhu	r2,12(r5)
 40042e0:	defffb04 	addi	sp,sp,-20
 40042e4:	dcc00315 	stw	r19,12(sp)
 40042e8:	dc800215 	stw	r18,8(sp)
 40042ec:	dc400115 	stw	r17,4(sp)
 40042f0:	dc000015 	stw	r16,0(sp)
 40042f4:	dfc00415 	stw	ra,16(sp)
 40042f8:	10c0400c 	andi	r3,r2,256
 40042fc:	2821883a 	mov	r16,r5
 4004300:	2023883a 	mov	r17,r4
 4004304:	3025883a 	mov	r18,r6
 4004308:	3827883a 	mov	r19,r7
 400430c:	18000526 	beq	r3,zero,4004324 <__swrite+0x48>
 4004310:	2940038f 	ldh	r5,14(r5)
 4004314:	01c00084 	movi	r7,2
 4004318:	000d883a 	mov	r6,zero
 400431c:	40069d00 	call	40069d0 <_lseek_r>
 4004320:	8080030b 	ldhu	r2,12(r16)
 4004324:	8140038f 	ldh	r5,14(r16)
 4004328:	10bbffcc 	andi	r2,r2,61439
 400432c:	980f883a 	mov	r7,r19
 4004330:	900d883a 	mov	r6,r18
 4004334:	8809883a 	mov	r4,r17
 4004338:	8080030d 	sth	r2,12(r16)
 400433c:	dfc00417 	ldw	ra,16(sp)
 4004340:	dcc00317 	ldw	r19,12(sp)
 4004344:	dc800217 	ldw	r18,8(sp)
 4004348:	dc400117 	ldw	r17,4(sp)
 400434c:	dc000017 	ldw	r16,0(sp)
 4004350:	dec00504 	addi	sp,sp,20
 4004354:	40062481 	jmpi	4006248 <_write_r>

04004358 <__sseek>:
 4004358:	defffe04 	addi	sp,sp,-8
 400435c:	dc000015 	stw	r16,0(sp)
 4004360:	2821883a 	mov	r16,r5
 4004364:	2940038f 	ldh	r5,14(r5)
 4004368:	dfc00115 	stw	ra,4(sp)
 400436c:	40069d00 	call	40069d0 <_lseek_r>
 4004370:	00ffffc4 	movi	r3,-1
 4004374:	10c00826 	beq	r2,r3,4004398 <__sseek+0x40>
 4004378:	80c0030b 	ldhu	r3,12(r16)
 400437c:	80801415 	stw	r2,80(r16)
 4004380:	18c40014 	ori	r3,r3,4096
 4004384:	80c0030d 	sth	r3,12(r16)
 4004388:	dfc00117 	ldw	ra,4(sp)
 400438c:	dc000017 	ldw	r16,0(sp)
 4004390:	dec00204 	addi	sp,sp,8
 4004394:	f800283a 	ret
 4004398:	80c0030b 	ldhu	r3,12(r16)
 400439c:	18fbffcc 	andi	r3,r3,61439
 40043a0:	80c0030d 	sth	r3,12(r16)
 40043a4:	dfc00117 	ldw	ra,4(sp)
 40043a8:	dc000017 	ldw	r16,0(sp)
 40043ac:	dec00204 	addi	sp,sp,8
 40043b0:	f800283a 	ret

040043b4 <__sclose>:
 40043b4:	2940038f 	ldh	r5,14(r5)
 40043b8:	40062a81 	jmpi	40062a8 <_close_r>

040043bc <stpcpy>:
 40043bc:	2904b03a 	or	r2,r5,r4
 40043c0:	108000cc 	andi	r2,r2,3
 40043c4:	1000151e 	bne	r2,zero,400441c <stpcpy+0x60>
 40043c8:	28c00017 	ldw	r3,0(r5)
 40043cc:	027fbff4 	movhi	r9,65279
 40043d0:	4a7fbfc4 	addi	r9,r9,-257
 40043d4:	02202074 	movhi	r8,32897
 40043d8:	00c4303a 	nor	r2,zero,r3
 40043dc:	1a4d883a 	add	r6,r3,r9
 40043e0:	42202004 	addi	r8,r8,-32640
 40043e4:	3084703a 	and	r2,r6,r2
 40043e8:	1204703a 	and	r2,r2,r8
 40043ec:	10000b1e 	bne	r2,zero,400441c <stpcpy+0x60>
 40043f0:	200d883a 	mov	r6,r4
 40043f4:	29400104 	addi	r5,r5,4
 40043f8:	30c00015 	stw	r3,0(r6)
 40043fc:	28c00017 	ldw	r3,0(r5)
 4004400:	21000104 	addi	r4,r4,4
 4004404:	200d883a 	mov	r6,r4
 4004408:	1a4f883a 	add	r7,r3,r9
 400440c:	00c4303a 	nor	r2,zero,r3
 4004410:	3884703a 	and	r2,r7,r2
 4004414:	1204703a 	and	r2,r2,r8
 4004418:	103ff626 	beq	r2,zero,40043f4 <__alt_data_end+0xfc0043f4>
 400441c:	28c00003 	ldbu	r3,0(r5)
 4004420:	2005883a 	mov	r2,r4
 4004424:	29400044 	addi	r5,r5,1
 4004428:	20c00005 	stb	r3,0(r4)
 400442c:	18c03fcc 	andi	r3,r3,255
 4004430:	18c0201c 	xori	r3,r3,128
 4004434:	18ffe004 	addi	r3,r3,-128
 4004438:	21000044 	addi	r4,r4,1
 400443c:	183ff71e 	bne	r3,zero,400441c <__alt_data_end+0xfc00441c>
 4004440:	f800283a 	ret

04004444 <strcpy>:
 4004444:	2906b03a 	or	r3,r5,r4
 4004448:	18c000cc 	andi	r3,r3,3
 400444c:	2005883a 	mov	r2,r4
 4004450:	1800161e 	bne	r3,zero,40044ac <strcpy+0x68>
 4004454:	29c00017 	ldw	r7,0(r5)
 4004458:	02ffbff4 	movhi	r11,65279
 400445c:	5affbfc4 	addi	r11,r11,-257
 4004460:	02a02074 	movhi	r10,32897
 4004464:	01c6303a 	nor	r3,zero,r7
 4004468:	3ac9883a 	add	r4,r7,r11
 400446c:	52a02004 	addi	r10,r10,-32640
 4004470:	20c6703a 	and	r3,r4,r3
 4004474:	1a86703a 	and	r3,r3,r10
 4004478:	18000c1e 	bne	r3,zero,40044ac <strcpy+0x68>
 400447c:	1011883a 	mov	r8,r2
 4004480:	41c00015 	stw	r7,0(r8)
 4004484:	29400104 	addi	r5,r5,4
 4004488:	29c00017 	ldw	r7,0(r5)
 400448c:	41800104 	addi	r6,r8,4
 4004490:	3011883a 	mov	r8,r6
 4004494:	3ad3883a 	add	r9,r7,r11
 4004498:	01c6303a 	nor	r3,zero,r7
 400449c:	48c6703a 	and	r3,r9,r3
 40044a0:	1a86703a 	and	r3,r3,r10
 40044a4:	183ff626 	beq	r3,zero,4004480 <__alt_data_end+0xfc004480>
 40044a8:	00000106 	br	40044b0 <strcpy+0x6c>
 40044ac:	100d883a 	mov	r6,r2
 40044b0:	28c00003 	ldbu	r3,0(r5)
 40044b4:	31800044 	addi	r6,r6,1
 40044b8:	29400044 	addi	r5,r5,1
 40044bc:	30ffffc5 	stb	r3,-1(r6)
 40044c0:	18c03fcc 	andi	r3,r3,255
 40044c4:	18c0201c 	xori	r3,r3,128
 40044c8:	18ffe004 	addi	r3,r3,-128
 40044cc:	183ff81e 	bne	r3,zero,40044b0 <__alt_data_end+0xfc0044b0>
 40044d0:	f800283a 	ret

040044d4 <strlen>:
 40044d4:	208000cc 	andi	r2,r4,3
 40044d8:	10002026 	beq	r2,zero,400455c <strlen+0x88>
 40044dc:	20800007 	ldb	r2,0(r4)
 40044e0:	10002026 	beq	r2,zero,4004564 <strlen+0x90>
 40044e4:	2005883a 	mov	r2,r4
 40044e8:	00000206 	br	40044f4 <strlen+0x20>
 40044ec:	10c00007 	ldb	r3,0(r2)
 40044f0:	18001826 	beq	r3,zero,4004554 <strlen+0x80>
 40044f4:	10800044 	addi	r2,r2,1
 40044f8:	10c000cc 	andi	r3,r2,3
 40044fc:	183ffb1e 	bne	r3,zero,40044ec <__alt_data_end+0xfc0044ec>
 4004500:	10c00017 	ldw	r3,0(r2)
 4004504:	01ffbff4 	movhi	r7,65279
 4004508:	39ffbfc4 	addi	r7,r7,-257
 400450c:	00ca303a 	nor	r5,zero,r3
 4004510:	01a02074 	movhi	r6,32897
 4004514:	19c7883a 	add	r3,r3,r7
 4004518:	31a02004 	addi	r6,r6,-32640
 400451c:	1946703a 	and	r3,r3,r5
 4004520:	1986703a 	and	r3,r3,r6
 4004524:	1800091e 	bne	r3,zero,400454c <strlen+0x78>
 4004528:	10800104 	addi	r2,r2,4
 400452c:	10c00017 	ldw	r3,0(r2)
 4004530:	19cb883a 	add	r5,r3,r7
 4004534:	00c6303a 	nor	r3,zero,r3
 4004538:	28c6703a 	and	r3,r5,r3
 400453c:	1986703a 	and	r3,r3,r6
 4004540:	183ff926 	beq	r3,zero,4004528 <__alt_data_end+0xfc004528>
 4004544:	00000106 	br	400454c <strlen+0x78>
 4004548:	10800044 	addi	r2,r2,1
 400454c:	10c00007 	ldb	r3,0(r2)
 4004550:	183ffd1e 	bne	r3,zero,4004548 <__alt_data_end+0xfc004548>
 4004554:	1105c83a 	sub	r2,r2,r4
 4004558:	f800283a 	ret
 400455c:	2005883a 	mov	r2,r4
 4004560:	003fe706 	br	4004500 <__alt_data_end+0xfc004500>
 4004564:	0005883a 	mov	r2,zero
 4004568:	f800283a 	ret

0400456c <__submore>:
 400456c:	defffa04 	addi	sp,sp,-24
 4004570:	dc000015 	stw	r16,0(sp)
 4004574:	2821883a 	mov	r16,r5
 4004578:	29400c17 	ldw	r5,48(r5)
 400457c:	dfc00515 	stw	ra,20(sp)
 4004580:	dd000415 	stw	r20,16(sp)
 4004584:	dcc00315 	stw	r19,12(sp)
 4004588:	dc800215 	stw	r18,8(sp)
 400458c:	dc400115 	stw	r17,4(sp)
 4004590:	80801004 	addi	r2,r16,64
 4004594:	28801726 	beq	r5,r2,40045f4 <__submore+0x88>
 4004598:	84400d17 	ldw	r17,52(r16)
 400459c:	8c67883a 	add	r19,r17,r17
 40045a0:	980d883a 	mov	r6,r19
 40045a4:	4006ef40 	call	4006ef4 <_realloc_r>
 40045a8:	1025883a 	mov	r18,r2
 40045ac:	10002226 	beq	r2,zero,4004638 <__submore+0xcc>
 40045b0:	1469883a 	add	r20,r2,r17
 40045b4:	880d883a 	mov	r6,r17
 40045b8:	100b883a 	mov	r5,r2
